VJ: SDL (joystick, audio) successfully initialized.
MainWin: Paths
   EEPROMPath = "C:\Users\trufu\AppData\Local\virtualjaguar/eeproms/"
      ROMPath = "C:\Users\trufu\AppData\Local\virtualjaguar/software/"
AlpineROMPath = ""
   absROMPath = ""
Pipelined DSP = off
Virtual Jaguar v2.1.2 (Last full build was on Oct 10 2014 08:15:28)
VJ: Initializing jaguar subsystem...
--> GPU stats were reset!
DAC: Successfully initialized. Sample rate: 48000
DAC: RISC clock = 26590906, cyclesPerSample = 553
CDINTF: No suitable CD-ROM driver found.
GUI: Resetting Jaguar...
EVENT: Cleared event list.
--> GPU stats were reset!
Jaguar: 68K reset. PC=000000 SP=B71B0000
JaguarLoadROM: Attempting to load file '..\RAPAPP.ABS'...Succeeded in finding extension (.ABS)!
VJ: Loading "..\RAPAPP.ABS"...OK (1730820 bytes)
CRC: ACA0E0F5
EEPROM: Could not open file "C:\Users\trufu\AppData\Local\virtualjaguar/eeproms/ACA0E0F5.eeprom"!
EEPROM: Could not open file "C:\Users\trufu\AppData\Local\virtualjaguar/eeproms/cdrom.eeprom"!
FILE: Setting up homebrew (ABS-1)... Run address: 00004000, length: 001A68E0
Gamepad: Found 0 joysticks.
Write to DSP CTRL by M68K: 00002000 (DSP PC=$00F1B000)
Write to DSP CTRL by M68K: 00000000 (DSP PC=$00F1B000)
TOM: Video Mode written by M68K: 06C7. PWIDTH = 4, MODE = 16 BPP RGB, flags: BGEN (VC = 83)
TOM: Horizontal Display End written by M68K: 1637
TOM: Horizontal Display Begin 1 written by M68K: 177
TOM: Horizontal Display Begin 2 written by M68K: 177
TOM: Vertical Display Begin written by M68K: 41
TOM: Vertical Display End written by M68K: 2047
TOM: Border 1 written by M68K: $0000
TOM: Border 2 written by M68K: $0000
Write to DSP CTRL by M68K: 00002000 (DSP PC=$00F1B000)
Write to DSP CTRL by M68K: 00000001 (DSP PC=$00F1B000)
JERRY: JPIT3 word written by M68K: 4544
JERRY: JPIT4 word written by M68K: 117
TOM: Vertical Interrupt written by M68K: 509
JERRY: JPIT1 word written by DSP: 48
JERRY: JPIT2 word written by DSP: 21
DAC: Writing 19 to SCLK (by DSP)...
DAC: DSP writing to SMODE. Bits: INTERNAL WSEN FALLING  [68K PC=0019E1A2]
M68K: Top of stack: 001FFFF6 -> (FFFF0000). Stack trace:
1FFFC6: 00000000 FFFF0000 FFFF0000 00900016
1FFFD6: A9C0001D 1E000000 CCDC0000 00000019
1FFFE6: C1EC0000 00000000 0019E1C4 0016A9C0
1FFFF6: FFFF0000 42840000 41640000 00000000
200006: 40006B50 0000F53C 0000A46E 00005E19
200016: 0000CB28 0000E41E 0000EB15 00008C11
200026: 00007876 00007912 00009927 00007A10
200036: 00000572 0000097A 00008018 00004324
200046: 0000756B 0000A136 00004912 00007A29
200056: 00005800 00009915 0000B87A 00006445
Jaguar: Interrupt enable = $01
Jaguar: Video interrupt is enabled (line=509)
68K PC=19E1A2
D0 = 00000000 D1 = 00000000 D2 = 000003F0 D3 = 0C003FFB 
D4 = 29150000 D5 = 0000FFFF D6 = 0000FFFF D7 = 00000091 
A0 = 0016A9C0 A1 = 001D1E00 A2 = 0000CCDC A3 = 00000000 
A4 = 0019C1EC A5 = 00005132 A6 = 0019DB68 A7 = 001FFFF6 
68K disasm
0019E122: 0019 E300                OR.B	#$0, (A1)+
0019E126: 0100                     BTST.L	D0, D0
0019E128: 3039 0019 E3C6           MOVE.W	$19E3C6, D0
0019E12E: D079 0019 DA46           ADD.W	$19DA46, D0
0019E134: 0040 0001                OR.W	#$1, D0
0019E138: 33C0 00F0 004E           MOVE.W	D0, $F0004E
0019E13E: 33C0 0019 E164           MOVE.W	D0, $19E164
0019E144: 33FC 0001 00F0 00E0      MOVE.W	#$1, $F000E0
0019E14C: 027C F8FF                ANDSR.W	#$F8FF
0019E150: 6100 0014                BSR.W	$19E166
0019E154: 203C 001F 8000           MOVE.L	#$1F8000, D0
0019E15A: 4840                     SWAP.W	D0
0019E15C: 23C0 00F0 0020           MOVE.L	D0, $F00020
0019E162: 4E75                     RTS.L	
0019E164: 01FD                     ILLEGAL.L	
0019E166: 3F07                     MOVE.W	D7, -(A7)
0019E168: 2F06                     MOVE.L	D6, -(A7)
0019E16A: 2F00                     MOVE.L	D0, -(A7)
0019E16C: 7C00                     MOVE.L	#$0, D6
0019E16E: 3E39 0019 E3CC           MOVE.W	$19E3CC, D7
0019E174: 6100 D844                BSR.W	$19B9BA
0019E178: 5286                     ADD.L	#$1, D6
0019E17A: BE79 0019 E3CC           CMP.W	$19E3CC, D7
0019E180: 67F2                     BEQ.B	$19E174 (true)
0019E182: 23C6 0019 E190           MOVE.L	D6, $19E190
0019E188: 201F                     MOVE.L	(A7)+, D0
0019E18A: 2C1F                     MOVE.L	(A7)+, D6
0019E18C: 3E1F                     MOVE.W	(A7)+, D7
0019E18E: 4E75                     RTS.L	
0019E190: 0000 04AE                OR.B	#$AE, D0
0019E194: 3F07                     MOVE.W	D7, -(A7)
0019E196: 3E39 0019 E3CC           MOVE.W	$19E3CC, D7
0019E19C: BE79 0019 E3CC           CMP.W	$19E3CC, D7
0019E1A2: 67F8                     BEQ.B	$19E19C (true)
0019E1A4: 2F08                     MOVE.L	A0, -(A7)
0019E1A6: 41F9 00F0 30C4           LEA.L	$F030C4, A0
0019E1AC: 6100 022C                BSR.W	$19E3DA
0019E1B0: 41F9 00F0 3A56           LEA.L	$F03A56, A0
0019E1B6: 6100 0222                BSR.W	$19E3DA
0019E1BA: 41F9 00F0 3A90           LEA.L	$F03A90, A0
0019E1C0: 6100 0218                BSR.W	$19E3DA
0019E1C4: 205F                     MOVEA.L	(A7)+, A0
0019E1C6: 3E1F                     MOVE.W	(A7)+, D7
0019E1C8: 4E75                     RTS.L	
0019E1CA: 2F08                     MOVE.L	A0, -(A7)
0019E1CC: 41F9 00F0 3A56           LEA.L	$F03A56, A0
0019E1D2: 6100 0206                BSR.W	$19E3DA
0019E1D6: 205F                     MOVEA.L	(A7)+, A0
0019E1D8: 4E75                     RTS.L	
0019E1DA: 2F08                     MOVE.L	A0, -(A7)
0019E1DC: 41F9 00F0 3A90           LEA.L	$F03A90, A0
0019E1E2: 6100 01F6                BSR.W	$19E3DA
0019E1E6: 205F                     MOVEA.L	(A7)+, A0
0019E1E8: 4E75                     RTS.L	
0019E1EA: 2F08                     MOVE.L	A0, -(A7)
0019E1EC: 41F9 00F0 30C4           LEA.L	$F030C4, A0
0019E1F2: 6100 01E6                BSR.W	$19E3DA
0019E1F6: 205F                     MOVEA.L	(A7)+, A0
0019E1F8: 4E75                     RTS.L	
0019E1FA: 2F08                     MOVE.L	A0, -(A7)
0019E1FC: 41F9 00F0 30C4           LEA.L	$F030C4, A0
0019E202: 6100 01D6                BSR.W	$19E3DA
0019E206: 205F                     MOVEA.L	(A7)+, A0
0019E208: 4E75                     RTS.L	
0019E20A: 2F08                     MOVE.L	A0, -(A7)
0019E20C: 41F9 00F0 30C4           LEA.L	$F030C4, A0
0019E212: 6100 01C6                BSR.W	$19E3DA
0019E216: 41F9 00F0 3A56           LEA.L	$F03A56, A0
0019E21C: 6100 01BC                BSR.W	$19E3DA
0019E220: 41F9 00F0 3A90           LEA.L	$F03A90, A0
0019E226: 6100 01B2                BSR.W	$19E3DA
0019E22A: 205F                     MOVEA.L	(A7)+, A0
0019E22C: 4E75                     RTS.L	
0019E22E: 48E7 FFFE                MVMLE.L	D0-D7/A0-A6, -(A7)
0019E232: 23C0 0019 E28A           MOVE.L	D0, $19E28A
0019E238: D040                     ADD.W	D0, D0
0019E23A: D040                     ADD.W	D0, D0
0019E23C: 2F00                     MOVE.L	D0, -(A7)
0019E23E: 41F9 0019 C16C           LEA.L	$19C16C, A0
0019E244: 2270 0000                MOVEA.L	(A0, D0.W*1, $0) == $16A9C0, A1
0019E248: 2079 0019 E3D0           MOVEA.L	$19E3D0, A0
0019E24E: 7003                     MOVE.L	#$3, D0
0019E250: 7202                     MOVE.L	#$2, D1
0019E252: 243C 0000 07FF           MOVE.L	#$7FF, D2
0019E258: 6100 F7EE                BSR.W	$19DA48
0019E25C: 201F                     MOVE.L	(A7)+, D0
0019E25E: 41F9 0019 C1EC           LEA.L	$19C1EC, A0
0019E264: 23F0 0000 00F0 3080      MOVE.L	(A0, D0.W*1, $0) == $16A9C0, $F03080
0019E26C: 41F9 0019 C22C           LEA.L	$19C22C, A0
0019E272: 23F0 0000 00F0 3084      MOVE.L	(A0, D0.W*1, $0) == $16A9C0, $F03084
0019E27A: 23F9 00F0 3080 0019 E3D4 MOVE.L	$F03080, $19E3D4
0019E284: 4CDF 7FFF                MVMEL.L	(A7)+, D0-D7/A0-A6
0019E288: 4E75                     RTS.L	
0019E28A: 0000 0000                OR.B	#$0, D0
0019E28E: 48E7 FFFE                MVMLE.L	D0-D7/A0-A6, -(A7)
0019E292: 2F39 00F0 3080           MOVE.L	$F03080, -(A7)
0019E298: 2F39 00F0 3084           MOVE.L	$F03084, -(A7)
0019E29E: 2F39 0019 E3D4           MOVE.L	$19E3D4, -(A7)
0019E2A4: 6100 FEC0                BSR.W	$19E166
0019E2A8: D040                     ADD.W	D0, D0
0019E2AA: D040                     ADD.W	D0, D0
0019E2AC: 41F9 0019 C1EC           LEA.L	$19C1EC, A0
0019E2B2: 23F0 0000 00F0 3080      MOVE.L	(A0, D0.W*1, $0) == $16A9C0, $F03080
0019E2BA: 41F9 0019 C22C           LEA.L	$19C22C, A0
0019E2C0: 23F0 0000 00F0 3084      MOVE.L	(A0, D0.W*1, $0) == $16A9C0, $F03084
0019E2C8: 23F9 00F0 3080 0019 E3D4 MOVE.L	$F03080, $19E3D4
0019E2D2: 41F9 00F0 30C4           LEA.L	$F030C4, A0
0019E2D8: 6100 0100                BSR.W	$19E3DA
0019E2DC: 23DF 0019 E3D4           MOVE.L	(A7)+, $19E3D4
0019E2E2: 23DF 00F0 3084           MOVE.L	(A7)+, $F03084
0019E2E8: 23DF 00F0 3080           MOVE.L	(A7)+, $F03080
0019E2EE: 4CDF 7FFF                MVMEL.L	(A7)+, D0-D7/A0-A6
0019E2F2: 4E75                     RTS.L	
0019E2F4: 0000 0000                OR.B	#$0, D0
0019E2F8: 0000 0000                OR.B	#$0, D0
0019E2FC: 0000 0000                OR.B	#$0, D0
0019E300: 48E7 FFFE                MVMLE.L	D0-D7/A0-A6, -(A7)
0019E304: 2039 001A 0A34           MOVE.L	$1A0A34, D0
0019E30A: 2239 001A 0A38           MOVE.L	$1A0A38, D1
0019E310: B181                     EOR.L	D0, D1
0019E312: 6716                     BEQ.B	$19E32A (true)
0019E314: 23C0 001A 0A38           MOVE.L	D0, $1A0A38
0019E31A: 6B08                     BMI.B	$19E324 (false)
0019E31C: 4EB9 001A 6AA4           JSR.L	$1A6AA4
0019E322: 6006                     BRA.B	$19E32A (true)
0019E324: 4EB9 001A 6AFC           JSR.L	$1A6AFC
0019E32A: 2039 001A 0A2C           MOVE.L	$1A0A2C, D0
0019E330: 2239 001A 0A30           MOVE.L	$1A0A30, D1
0019E336: B181                     EOR.L	D0, D1
0019E338: 660E                     BNE.B	$19E348 (false)
0019E33A: 2039 001A 0A24           MOVE.L	$1A0A24, D0
0019E340: 2239 001A 0A28           MOVE.L	$1A0A28, D1
0019E346: 6724                     BEQ.B	$19E36C (true)
0019E348: 2079 001A 0A3C           MOVEA.L	$1A0A3C, A0
0019E34E: 2039 001A 0A24           MOVE.L	$1A0A24, D0
0019E354: 23C0 001A 0A30           MOVE.L	D0, $1A0A30
0019E35A: 2239 001A 0A2C           MOVE.L	$1A0A2C, D1
0019E360: 23C1 001A 0A30           MOVE.L	D1, $1A0A30
0019E366: 4EB9 0019 D716           JSR.L	$19D716
0019E36C: 4EB9 0019 D8D0           JSR.L	$19D8D0
0019E372: 0679 0001 0019 E3CC      ADD.W	#$1, $19E3CC
0019E37A: 33FC 0101 00F0 00E0      MOVE.W	#$101, $F000E0
0019E382: 33FC 0000 00F0 00E2      MOVE.W	#$0, $F000E2
0019E38A: 6100 197A                BSR.W	$19FD06
0019E38E: 6100 D62A                BSR.W	$19B9BA
0019E392: 2079 001A 7AC0           MOVEA.L	$1A7AC0, A0
0019E398: 4E90                     JSR.L	(A0)
0019E39A: 4CDF 7FFF                MVMEL.L	(A7)+, D0-D7/A0-A6
0019E39E: 4E73                     RTE.L	
0019E3A0: 0000 03F0                OR.B	#$F0, D0
0019E3A4: 0C00 7FF3                CMP.B	#$F3, D0
0019E3A8: 0000 03F0                OR.B	#$F0, D0
0019E3AC: 0C00 3FFB                CMP.B	#$FB, D0
0019E3B0: 2915                     MOVE.L	(A5), -(A4)
0019E3B2: 0000 990E                OR.B	#$E, D0
0019E3B6: 0000 BC07                OR.B	#$7, D0
0019E3BA: 0000 2D5B                OR.B	#$5B, D0
0019E3BE: 0000 00B1                OR.B	#$B1, D0
0019E3C2: 0665 0029                ADD.W	#$29, -(A5)
0019E3C6: 01FB 04CD                BSET.B	D0, (PC, D0.W*4, $FFFFFFCD) == $19E395
0019E3CA: 00F1                     ILLEGAL.L	
0019E3CC: 0091 0001 001F           OR.L	#$1001F, (A1)
0019E3D2: C040                     AND.W	D0, D0
0019E3D4: 001B 9560                OR.B	#$60, (A3)+
0019E3D8: 0008                     ILLEGAL.L	
0019E3DA: 2F00                     MOVE.L	D0, -(A7)
0019E3DC: 7000                     MOVE.L	#$0, D0
0019E3DE: 23C0 00F0 2114           MOVE.L	D0, $F02114
0019E3E4: 4E71                     NOP.L	
0019E3E6: 4E71                     NOP.L	
0019E3E8: 4E71                     NOP.L	
0019E3EA: 4E71                     NOP.L	
0019E3EC: 23C8 00F0 2110           MOVE.L	A0, $F02110
0019E3F2: 23FC 0000 0001 00F0 2114 MOVE.L	#$1, $F02114
0019E3FC: 2039 00F0 2114           MOVE.L	$F02114, D0
0019E402: 0280 0000 0001           AND.L	#$1, D0
0019E408: 66F2                     BNE.B	$19E3FC (false)
0019E40A: 201F                     MOVE.L	(A7)+, D0
0019E40C: 4E75                     RTS.L	
0019E40E: 2F00                     MOVE.L	D0, -(A7)
0019E410: 7000                     MOVE.L	#$0, D0
0019E412: 23C0 00F0 2114           MOVE.L	D0, $F02114
0019E418: 4E71                     NOP.L	
0019E41A: 4E71                     NOP.L	
0019E41C: 4E71                     NOP.L	
0019E41E: 4E71                     NOP.L	
0019E420: 23C8 00F0 2110           MOVE.L	A0, $F02110
0019E426: 23FC 0000 0001 00F0 2114 MOVE.L	#$1, $F02114
0019E430: 4E72 2000                STOP.L	#$2000
0019E434: 201F                     MOVE.L	(A7)+, D0
0019E436: 4E75                     RTS.L	
0019E438: 23C8 00F0 2110           MOVE.L	A0, $F02110
0019E43E: 23FC 0000 0001 00F0 2114 MOVE.L	#$1, $F02114
0019E448: 4E75                     RTS.L	
0019E44A: 23F9 001A 7AE0 00F0 30A8 MOVE.L	$1A7AE0, $F030A8
0019E454: 6100 001E                BSR.W	$19E474
0019E458: 2079 001A 7AD8           MOVEA.L	$1A7AD8, A0
0019E45E: 2279 001A 7ABC           MOVEA.L	$1A7ABC, A1
0019E464: 6100 EE26                BSR.W	$19D28C
0019E468: 43F9 00F0 05E0           LEA.L	$F005E0, A1
0019E46E: 6100 EE04                BSR.W	$19D274
0019E472: 4E75                     RTS.L	
0019E474: 48E7 01C0                MVMLE.L	D7/A0-A1, -(A7)
0019E478: 2079 001A 7AE0           MOVEA.L	$1A7AE0, A0
0019E47E: 2279 001A 7AE4           MOVEA.L	$1A7AE4, A1
0019E484: 4258                     CLR.W	(A0)+
0019E486: B3C8                     CMPA.L	A0, A1
0019E488: 66FA                     BNE.B	$19E484 (false)
0019E48A: 2079 001A 7AEC           MOVEA.L	$1A7AEC, A0
0019E490: 2E39 001A 7A98           MOVE.L	$1A7A98, D7
0019E496: 5387                     SUB.L	#$1, D7
0019E498: 217C FFFF FFFF 0000      MOVE.L	#$FFFFFFFF, (A0,$0) == $16A9C0
0019E4A0: 217C 00F0 30A4 0028      MOVE.L	#$F030A4, (A0,$28) == $16A9E8
0019E4A8: 41E8 002C                LEA.L	(A0,$2C) == $16A9EC, A0
0019E4AC: 51CF FFEA                DBRN.W	D7, $19E498 (false)
0019E4B0: 4CDF 0380                MVMEL.L	(A7)+, D7/A0-A1
0019E4B4: 4E75                     RTS.L	
0019E4B6: 0000 0000                OR.B	#$0, D0
0019E4BA: 0000 0000                OR.B	#$0, D0
0019E4BE: 0000 0000                OR.B	#$0, D0
0019E4C2: 0000 0000                OR.B	#$0, D0
0019E4C6: 0000 0000                OR.B	#$0, D0
0019E4CA: 0000 0000                OR.B	#$0, D0
0019E4CE: 0000 0000                OR.B	#$0, D0
0019E4D2: 0000 0000                OR.B	#$0, D0
0019E4D6: 0000 0000                OR.B	#$0, D0
0019E4DA: 0000 0000                OR.B	#$0, D0
0019E4DE: 0000 0000                OR.B	#$0, D0
0019E4E2: 0000 0000                OR.B	#$0, D0
0019E4E6: 0000 0000                OR.B	#$0, D0
0019E4EA: 0000 0000                OR.B	#$0, D0
0019E4EE: 0000 0000                OR.B	#$0, D0
0019E4F2: 0000 0000                OR.B	#$0, D0
0019E4F6: 0000 0000                OR.B	#$0, D0
0019E4FA: 48E7 FFFE                MVMLE.L	D0-D7/A0-A6, -(A7)
0019E4FE: 2C79 00F0 30A8           MOVEA.L	$F030A8, A6
0019E504: E240                     ASR.W	#$1, D0
0019E506: C07C FFFE                AND.W	#$FFFE, D0
0019E50A: DCC0                     ADDA.W	D0, A6
0019E50C: 2839 001A 7AA8           MOVE.L	$1A7AA8, D4
0019E512: E284                     ASR.L	#$1, D4
0019E514: C2C4                     MULU.W	D4, D1
0019E516: DDC1                     ADDA.L	D1, A6
0019E518: 4BF9 0019 E7BE           LEA.L	$19E7BE, A5
0019E51E: E942                     ASL.W	#$4, D2
0019E520: 23F5 200C 0019 E776      MOVE.L	(A5, D2.W*1, $C) == $552E, $19E776
0019E528: 3A35 200A                MOVE.W	(A5, D2.W*1, $A) == $552C, D5
0019E52C: 3C35 2008                MOVE.W	(A5, D2.W*1, $8) == $552A, D6
0019E530: 2035 2004                MOVE.L	(A5, D2.W*1, $4) == $5526, D0
0019E534: 43F9 0019 E57A           LEA.L	$19E57A, A1
0019E53A: 23F1 0000 0019 E576      MOVE.L	(A1, D0.W*1, $0) == $1D1E00, $19E576
0019E542: 2A75 2000                MOVEA.L	(A5, D2.W*1, $0) == $5522, A5
0019E546: 23CD 0019 E77A           MOVE.L	A5, $19E77A
0019E54C: 4A43                     TST.W	D3
0019E54E: 670A                     BEQ.B	$19E55A (true)
0019E550: 2039 0019 E776           MOVE.L	$19E776, D0
0019E556: C0C3                     MULU.W	D3, D0
0019E558: DBC0                     ADDA.L	D0, A5
0019E55A: 23CE 0019 E796           MOVE.L	A6, $19E796
0019E560: 7000                     MOVE.L	#$0, D0
0019E562: 1018                     MOVE.B	(A0)+, D0
0019E564: 6B00 0138                BMI.W	$19E69E (false)
0019E568: 6700 016C                BEQ.W	$19E6D6 (true)
0019E56C: 903C 0020                SUB.B	#$20, D0
0019E570: 284D                     MOVEA.L	A5, A4
0019E572: 264E                     MOVEA.L	A6, A3
0019E574: 4EF9 0000 0000           JMP.L	$0
0019E57A: 0019 E586                OR.B	#$86, (A1)+
0019E57E: 0019 E5B2                OR.B	#$B2, (A1)+
0019E582: 0019 E604                OR.B	#$4, (A1)+
0019E586: EB48                     LSL.W	#$5, D0
0019E588: D9C0                     ADDA.L	D0, A4
0019E58A: 4CDC 06AF                MVMEL.L	(A4)+, D0-D3/D5/D7/A1-A2
0019E58E: 2680                     MOVE.L	D0, (A3)
0019E590: D7C4                     ADDA.L	D4, A3
0019E592: 2681                     MOVE.L	D1, (A3)
0019E594: D7C4                     ADDA.L	D4, A3
0019E596: 2682                     MOVE.L	D2, (A3)
0019E598: D7C4                     ADDA.L	D4, A3
0019E59A: 2683                     MOVE.L	D3, (A3)
0019E59C: D7C4                     ADDA.L	D4, A3
0019E59E: 2685                     MOVE.L	D5, (A3)
0019E5A0: D7C4                     ADDA.L	D4, A3
0019E5A2: 2687                     MOVE.L	D7, (A3)
0019E5A4: D7C4                     ADDA.L	D4, A3
0019E5A6: 2689                     MOVE.L	A1, (A3)
0019E5A8: D7C4                     ADDA.L	D4, A3
0019E5AA: 268A                     MOVE.L	A2, (A3)
0019E5AC: 4DEE 0004                LEA.L	(A6,$4) == $19DB6C, A6
0019E5B0: 60AE                     BRA.B	$19E560 (true)
0019E5B2: ED48                     LSL.W	#$6, D0
0019E5B4: D9C0                     ADDA.L	D0, A4
0019E5B6: 4CDC 06AF                MVMEL.L	(A4)+, D0-D3/D5/D7/A1-A2
0019E5BA: 2680                     MOVE.L	D0, (A3)
0019E5BC: D7C4                     ADDA.L	D4, A3
0019E5BE: 2681                     MOVE.L	D1, (A3)
0019E5C0: D7C4                     ADDA.L	D4, A3
0019E5C2: 2682                     MOVE.L	D2, (A3)
0019E5C4: D7C4                     ADDA.L	D4, A3
0019E5C6: 2683                     MOVE.L	D3, (A3)
0019E5C8: D7C4                     ADDA.L	D4, A3
0019E5CA: 2685                     MOVE.L	D5, (A3)
0019E5CC: D7C4                     ADDA.L	D4, A3
0019E5CE: 2687                     MOVE.L	D7, (A3)
0019E5D0: D7C4                     ADDA.L	D4, A3
0019E5D2: 2689                     MOVE.L	A1, (A3)
0019E5D4: D7C4                     ADDA.L	D4, A3
0019E5D6: 268A                     MOVE.L	A2, (A3)
0019E5D8: D7C4                     ADDA.L	D4, A3
0019E5DA: 4CDC 06AF                MVMEL.L	(A4)+, D0-D3/D5/D7/A1-A2
0019E5DE: 2680                     MOVE.L	D0, (A3)
0019E5E0: D7C4                     ADDA.L	D4, A3
0019E5E2: 2681                     MOVE.L	D1, (A3)
0019E5E4: D7C4                     ADDA.L	D4, A3
0019E5E6: 2682                     MOVE.L	D2, (A3)
0019E5E8: D7C4                     ADDA.L	D4, A3
0019E5EA: 2683                     MOVE.L	D3, (A3)
0019E5EC: D7C4                     ADDA.L	D4, A3
0019E5EE: 2685                     MOVE.L	D5, (A3)
0019E5F0: D7C4                     ADDA.L	D4, A3
0019E5F2: 2687                     MOVE.L	D7, (A3)
0019E5F4: D7C4                     ADDA.L	D4, A3
0019E5F6: 2689                     MOVE.L	A1, (A3)
0019E5F8: D7C4                     ADDA.L	D4, A3
0019E5FA: 268A                     MOVE.L	A2, (A3)
0019E5FC: 4DEE 0004                LEA.L	(A6,$4) == $19DB6C, A6
0019E600: 6000 FF5E                BRA.W	$19E560 (true)
0019E604: EF88                     LSL.L	#$7, D0
0019E606: D8C0                     ADDA.W	D0, A4
0019E608: 4CDC 06AF                MVMEL.L	(A4)+, D0-D3/D5/D7/A1-A2
0019E60C: 2680                     MOVE.L	D0, (A3)
0019E60E: 2741 0004                MOVE.L	D1, (A3,$4) == $4
0019E612: D7C4                     ADDA.L	D4, A3
0019E614: 2682                     MOVE.L	D2, (A3)
0019E616: 2743 0004                MOVE.L	D3, (A3,$4) == $4
0019E61A: D7C4                     ADDA.L	D4, A3
0019E61C: 2685                     MOVE.L	D5, (A3)
0019E61E: 2747 0004                MOVE.L	D7, (A3,$4) == $4
0019E622: D7C4                     ADDA.L	D4, A3
0019E624: 2689                     MOVE.L	A1, (A3)
0019E626: 274A 0004                MOVE.L	A2, (A3,$4) == $4
0019E62A: D7C4                     ADDA.L	D4, A3
0019E62C: 4CDC 06AF                MVMEL.L	(A4)+, D0-D3/D5/D7/A1-A2
0019E630: 2680                     MOVE.L	D0, (A3)
0019E632: 2741 0004                MOVE.L	D1, (A3,$4) == $4
0019E636: D7C4                     ADDA.L	D4, A3
0019E638: 2682                     MOVE.L	D2, (A3)
0019E63A: 2743 0004                MOVE.L	D3, (A3,$4) == $4
0019E63E: D7C4                     ADDA.L	D4, A3
0019E640: 2685                     MOVE.L	D5, (A3)
0019E642: 2747 0004                MOVE.L	D7, (A3,$4) == $4
0019E646: D7C4                     ADDA.L	D4, A3
0019E648: 2689                     MOVE.L	A1, (A3)
0019E64A: 274A 0004                MOVE.L	A2, (A3,$4) == $4
0019E64E: D7C4                     ADDA.L	D4, A3
0019E650: 4CDC 06AF                MVMEL.L	(A4)+, D0-D3/D5/D7/A1-A2
0019E654: 2680                     MOVE.L	D0, (A3)
0019E656: 2741 0004                MOVE.L	D1, (A3,$4) == $4
0019E65A: D7C4                     ADDA.L	D4, A3
0019E65C: 2682                     MOVE.L	D2, (A3)
0019E65E: 2743 0004                MOVE.L	D3, (A3,$4) == $4
0019E662: D7C4                     ADDA.L	D4, A3
0019E664: 2685                     MOVE.L	D5, (A3)
0019E666: 2747 0004                MOVE.L	D7, (A3,$4) == $4
0019E66A: D7C4                     ADDA.L	D4, A3
0019E66C: 2689                     MOVE.L	A1, (A3)
0019E66E: 274A 0004                MOVE.L	A2, (A3,$4) == $4
0019E672: D7C4                     ADDA.L	D4, A3
0019E674: 4CDC 06AF                MVMEL.L	(A4)+, D0-D3/D5/D7/A1-A2
0019E678: 2680                     MOVE.L	D0, (A3)
0019E67A: 2741 0004                MOVE.L	D1, (A3,$4) == $4
0019E67E: D7C4                     ADDA.L	D4, A3
0019E680: 2682                     MOVE.L	D2, (A3)
0019E682: 2743 0004                MOVE.L	D3, (A3,$4) == $4
0019E686: D7C4                     ADDA.L	D4, A3
0019E688: 2685                     MOVE.L	D5, (A3)
0019E68A: 2747 0004                MOVE.L	D7, (A3,$4) == $4
0019E68E: D7C4                     ADDA.L	D4, A3
0019E690: 2689                     MOVE.L	A1, (A3)
0019E692: 274A 0004                MOVE.L	A2, (A3,$4) == $4
0019E696: 4DEE 0008                LEA.L	(A6,$8) == $19DB70, A6
0019E69A: 6000 FEC4                BRA.W	$19E560 (true)
0019E69E: 47F9 0019 E6B6           LEA.L	$19E6B6, A3
0019E6A4: 4400                     NEG.B	D0
0019E6A6: C0BC 0000 00FF           AND.L	#$FF, D0
0019E6AC: D040                     ADD.W	D0, D0
0019E6AE: D040                     ADD.W	D0, D0
0019E6B0: 2673 0000                MOVEA.L	(A3, D0.W*1, $0) == $0, A3
0019E6B4: 4ED3                     JMP.L	(A3)
0019E6B6: 0000 0000                OR.B	#$0, D0
0019E6BA: 0019 E6D6                OR.B	#$D6, (A1)+
0019E6BE: 0019 E77E                OR.B	#$7E, (A1)+
0019E6C2: 0019 E75E                OR.B	#$5E, (A1)+
0019E6C6: 0019 E722                OR.B	#$22, (A1)+
0019E6CA: 0019 E6FE                OR.B	#$FE, (A1)+
0019E6CE: 0019 E6EE                OR.B	#$EE, (A1)+
0019E6D2: 0019 E79A                OR.B	#$9A, (A1)+
0019E6D6: 48F9 7EF3 0019 E4B6      MVMLE.L	D1-D6/A0-A3/A6-A7, $19E4B6
0019E6DE: 23F9 0019 E796 0019 E4F6 MOVE.L	$19E796, $19E4F6
0019E6E8: 4CDF 7FFF                MVMEL.L	(A7)+, D0-D7/A0-A6
0019E6EC: 4E75                     RTS.L	
0019E6EE: 2C79 00F0 30A8           MOVEA.L	$F030A8, A6
0019E6F4: 23CE 0019 E796           MOVE.L	A6, $19E796
0019E6FA: 6000 FE64                BRA.W	$19E560 (true)
0019E6FE: 7000                     MOVE.L	#$0, D0
0019E700: 7200                     MOVE.L	#$0, D1
0019E702: 1018                     MOVE.B	(A0)+, D0
0019E704: 1218                     MOVE.B	(A0)+, D1
0019E706: 2C79 00F0 30A8           MOVEA.L	$F030A8, A6
0019E70C: E240                     ASR.W	#$1, D0
0019E70E: C07C FFFE                AND.W	#$FFFE, D0
0019E712: DCC0                     ADDA.W	D0, A6
0019E714: C2C4                     MULU.W	D4, D1
0019E716: DDC1                     ADDA.L	D1, A6
0019E718: 23CE 0019 E796           MOVE.L	A6, $19E796
0019E71E: 6000 FE40                BRA.W	$19E560 (true)
0019E722: 4BF9 0019 E7BE           LEA.L	$19E7BE, A5
0019E728: 7400                     MOVE.L	#$0, D2
0019E72A: 1418                     MOVE.B	(A0)+, D2
0019E72C: E942                     ASL.W	#$4, D2
0019E72E: 2035 2004                MOVE.L	(A5, D2.W*1, $4) == $5526, D0
0019E732: 43F9 0019 E57A           LEA.L	$19E57A, A1
0019E738: 23F1 0000 0019 E576      MOVE.L	(A1, D0.W*1, $0) == $1D1E00, $19E576
0019E740: 23F5 200C 0019 E776      MOVE.L	(A5, D2.W*1, $C) == $552E, $19E776
0019E748: 3A35 200A                MOVE.W	(A5, D2.W*1, $A) == $552C, D5
0019E74C: 3C35 2008                MOVE.W	(A5, D2.W*1, $8) == $552A, D6
0019E750: 2A75 2000                MOVEA.L	(A5, D2.W*1, $0) == $5522, A5
0019E754: 23CD 0019 E77A           MOVE.L	A5, $19E77A
0019E75A: 6000 FE04                BRA.W	$19E560 (true)
0019E75E: 7000                     MOVE.L	#$0, D0
0019E760: 1018                     MOVE.B	(A0)+, D0
0019E762: 2439 0019 E776           MOVE.L	$19E776, D2
0019E768: C0C2                     MULU.W	D2, D0
0019E76A: 2A79 0019 E77A           MOVEA.L	$19E77A, A5
0019E770: DBC0                     ADDA.L	D0, A5
0019E772: 6000 FDEC                BRA.W	$19E560 (true)
0019E776: 0000 0000                OR.B	#$0, D0
0019E77A: 0000 0000                OR.B	#$0, D0
0019E77E: 2C79 0019 E796           MOVEA.L	$19E796, A6
0019E784: 2406                     MOVE.L	D6, D2
0019E786: DDC4                     ADDA.L	D4, A6
0019E788: D9B9 0019 E796           ADD.L	D4, $19E796
0019E78E: 51CA FFF6                DBRN.W	D2, $19E786 (false)
0019E792: 6000 FDCC                BRA.W	$19E560 (true)
0019E796: 0000 0000                OR.B	#$0, D0
0019E79A: 4DEE 0002                LEA.L	(A6,$2) == $19DB6A, A6
0019E79E: 6000 FDC0                BRA.W	$19E560 (true)
0019E7A2: 23F9 0019 E4F6 0019 E796 MOVE.L	$19E4F6, $19E796
0019E7AC: 6000 FD6A                BRA.W	$19E518 (true)
0019E7B0: 48E7 FFFE                MVMLE.L	D0-D7/A0-A6, -(A7)
0019E7B4: 4CF9 7EF3 0019 E4B6      MVMEL.L	$19E4B6, D0-D1/D4-D7/A1-A6
0019E7BC: 60E4                     BRA.B	$19E7A2 (true)
0019E7BE: 0000 5288                OR.B	#$88, D0
0019E7C2: 0000 0000                OR.B	#$0, D0
0019E7C6: 0007 0002                OR.B	#$2, D7
0019E7CA: 0000 0F00                OR.B	#$0, D0
0019E7CE: 0000 8F00                OR.B	#$0, D0
0019E7D2: 0000 0004                OR.B	#$4, D0
0019E7D6: 000F                     ILLEGAL.L	
0019E7D8: 0002 0000                OR.B	#$0, D2
0019E7DC: 1E00                     MOVE.B	D0, D7
0019E7DE: 0000 CB80                OR.B	#$80, D0
0019E7E2: 0000 0008                OR.B	#$8, D0
0019E7E6: 000F                     ILLEGAL.L	
0019E7E8: 0003 0000                OR.B	#$0, D3
0019E7EC: 3C00                     MOVE.W	D0, D6
0019E7EE: 48E7 FFFE                MVMLE.L	D0-D7/A0-A6, -(A7)
0019E7F2: 2E00                     MOVE.L	D0, D7
0019E7F4: 1018                     MOVE.B	(A0)+, D0
0019E7F6: 1200                     MOVE.B	D0, D1
0019E7F8: C0BC 0000 000F           AND.L	#$F, D0
0019E7FE: E899                     ROR.L	#$4, D1
0019E800: C2BC 0000 000F           AND.L	#$F, D1
0019E806: 12FB 1010                MOVE.B	(PC, D1.W*1, $10) == $19E818, (A1)+
0019E80A: 12FB 000C                MOVE.B	(PC, D0.W*1, $C) == $19E818, (A1)+
0019E80E: 51CF FFE4                DBRN.W	D7, $19E7F4 (false)
0019E812: 4CDF 7FFF                MVMEL.L	(A7)+, D0-D7/A0-A6
0019E816: 4E75                     RTS.L	
0019E818: 3031 3233                MOVE.W	(A1, D3.W*2, $33) == $1D9E29, D0
0019E81C: 3435 3637                MOVE.W	(A5, D3.W*8, $37) == $25141, D2
0019E820: 3839 4142 4344           MOVE.W	$41424344, D4
0019E826: 4546                     ILLEGAL.L	
0019E828: 48E7 FD10                MVMLE.L	D0-D5/D7/A3, -(A7)
0019E82C: 2F08                     MOVE.L	A0, -(A7)
0019E82E: 47FA 003C                LEA.L	(PC, $3C) == $19E86C, A3
0019E832: 3A04                     MOVE.W	D4, D5
0019E834: E54D                     LSL.W	#$2, D5
0019E836: 47F3 5004                LEA.L	(A3, D5.W*1, $4) == $3, A3
0019E83A: 7A30                     MOVE.L	#$30, D5
0019E83C: 2623                     MOVE.L	-(A3), D3
0019E83E: 74D0                     MOVE.L	#$FFFFFFD0, D2
0019E840: 9283                     SUB.L	D3, D1
0019E842: 55CA FFFC                DBCS.W	D2, $19E840 (false)
0019E846: 4402                     NEG.B	D2
0019E848: 1002                     MOVE.B	D2, D0
0019E84A: B03C 0030                CMP.B	#$30, D0
0019E84E: 6712                     BEQ.B	$19E862 (true)
0019E850: 7A30                     MOVE.L	#$30, D5
0019E852: 10C0                     MOVE.B	D0, (A0)+
0019E854: D283                     ADD.L	D3, D1
0019E856: 51CC FFE4                DBRN.W	D4, $19E83C (false)
0019E85A: 205F                     MOVEA.L	(A7)+, A0
0019E85C: 4CDF 08BF                MVMEL.L	(A7)+, D0-D5/D7/A3
0019E860: 4E75                     RTS.L	
0019E862: 3005                     MOVE.W	D5, D0
0019E864: 4A44                     TST.W	D4
0019E866: 66EA                     BNE.B	$19E852 (false)
0019E868: 7030                     MOVE.L	#$30, D0
0019E86A: 60E6                     BRA.B	$19E852 (true)
0019E86C: 0000 0001                OR.B	#$1, D0
0019E870: 0000 000A                OR.B	#$A, D0
0019E874: 0000 0064                OR.B	#$64, D0
..................
video int: enabled
0019E300: 48E7 FFFE                MVMLE.L	D0-D7/A0-A6, -(A7)
0019E304: 2039 001A 0A34           MOVE.L	$1A0A34, D0
0019E30A: 2239 001A 0A38           MOVE.L	$1A0A38, D1
0019E310: B181                     EOR.L	D0, D1
0019E312: 6716                     BEQ.B	$19E32A (true)
0019E314: 23C0 001A 0A38           MOVE.L	D0, $1A0A38
0019E31A: 6B08                     BMI.B	$19E324 (false)
0019E31C: 4EB9 001A 6AA4           JSR.L	$1A6AA4
0019E322: 6006                     BRA.B	$19E32A (true)
0019E324: 4EB9 001A 6AFC           JSR.L	$1A6AFC
0019E32A: 2039 001A 0A2C           MOVE.L	$1A0A2C, D0
0019E330: 2239 001A 0A30           MOVE.L	$1A0A30, D1
0019E336: B181                     EOR.L	D0, D1
0019E338: 660E                     BNE.B	$19E348 (false)
0019E33A: 2039 001A 0A24           MOVE.L	$1A0A24, D0
0019E340: 2239 001A 0A28           MOVE.L	$1A0A28, D1
0019E346: 6724                     BEQ.B	$19E36C (true)
0019E348: 2079 001A 0A3C           MOVEA.L	$1A0A3C, A0
0019E34E: 2039 001A 0A24           MOVE.L	$1A0A24, D0
0019E354: 23C0 001A 0A30           MOVE.L	D0, $1A0A30
0019E35A: 2239 001A 0A2C           MOVE.L	$1A0A2C, D1
0019E360: 23C1 001A 0A30           MOVE.L	D1, $1A0A30
0019E366: 4EB9 0019 D716           JSR.L	$19D716
0019E36C: 4EB9 0019 D8D0           JSR.L	$19D8D0
0019E372: 0679 0001 0019 E3CC      ADD.W	#$1, $19E3CC
0019E37A: 33FC 0101 00F0 00E0      MOVE.W	#$101, $F000E0
0019E382: 33FC 0000 00F0 00E2      MOVE.W	#$0, $F000E2
0019E38A: 6100 197A                BSR.W	$19FD06
0019E38E: 6100 D62A                BSR.W	$19B9BA
0019E392: 2079 001A 7AC0           MOVEA.L	$1A7AC0, A0
0019E398: 4E90                     JSR.L	(A0)
0019E39A: 4CDF 7FFF                MVMEL.L	(A7)+, D0-D7/A0-A6
0019E39E: 4E73                     RTE.L	
0019E3A0: 0000 03F0                OR.B	#$F0, D0
0019E3A4: 0C00 7FF3                CMP.B	#$F3, D0
0019E3A8: 0000 03F0                OR.B	#$F0, D0
0019E3AC: 0C00 3FFB                CMP.B	#$FB, D0
0019E3B0: 2915                     MOVE.L	(A5), -(A4)
0019E3B2: 0000 990E                OR.B	#$E, D0
0019E3B6: 0000 BC07                OR.B	#$7, D0
0019E3BA: 0000 2D5B                OR.B	#$5B, D0
0019E3BE: 0000 00B1                OR.B	#$B1, D0
0019E3C2: 0665 0029                ADD.W	#$29, -(A5)
0019E3C6: 01FB 04CD                BSET.B	D0, (PC, D0.W*4, $FFFFFFCD) == $19E395
0019E3CA: 00F1                     ILLEGAL.L	
0019E3CC: 0091 0001 001F           OR.L	#$1001F, (A1)
0019E3D2: C040                     AND.W	D0, D0
0019E3D4: 001B 9560                OR.B	#$60, (A3)+
0019E3D8: 0008                     ILLEGAL.L	
0019E3DA: 2F00                     MOVE.L	D0, -(A7)
0019E3DC: 7000                     MOVE.L	#$0, D0
0019E3DE: 23C0 00F0 2114           MOVE.L	D0, $F02114
0019E3E4: 4E71                     NOP.L	
0019E3E6: 4E71                     NOP.L	
0019E3E8: 4E71                     NOP.L	
0019E3EA: 4E71                     NOP.L	
0019E3EC: 23C8 00F0 2110           MOVE.L	A0, $F02110
0019E3F2: 23FC 0000 0001 00F0 2114 MOVE.L	#$1, $F02114
0019E3FC: 2039 00F0 2114           MOVE.L	$F02114, D0
0019E402: 0280 0000 0001           AND.L	#$1, D0
0019E408: 66F2                     BNE.B	$19E3FC (false)
0019E40A: 201F                     MOVE.L	(A7)+, D0
0019E40C: 4E75                     RTS.L	
0019E40E: 2F00                     MOVE.L	D0, -(A7)
0019E410: 7000                     MOVE.L	#$0, D0
0019E412: 23C0 00F0 2114           MOVE.L	D0, $F02114
0019E418: 4E71                     NOP.L	
0019E41A: 4E71                     NOP.L	
0019E41C: 4E71                     NOP.L	
0019E41E: 4E71                     NOP.L	
0019E420: 23C8 00F0 2110           MOVE.L	A0, $F02110
0019E426: 23FC 0000 0001 00F0 2114 MOVE.L	#$1, $F02114
0019E430: 4E72 2000                STOP.L	#$2000
0019E434: 201F                     MOVE.L	(A7)+, D0
0019E436: 4E75                     RTS.L	
0019E438: 23C8 00F0 2110           MOVE.L	A0, $F02110
0019E43E: 23FC 0000 0001 00F0 2114 MOVE.L	#$1, $F02114
0019E448: 4E75                     RTS.L	
0019E44A: 23F9 001A 7AE0 00F0 30A8 MOVE.L	$1A7AE0, $F030A8
0019E454: 6100 001E                BSR.W	$19E474
0019E458: 2079 001A 7AD8           MOVEA.L	$1A7AD8, A0
0019E45E: 2279 001A 7ABC           MOVEA.L	$1A7ABC, A1
0019E464: 6100 EE26                BSR.W	$19D28C
0019E468: 43F9 00F0 05E0           LEA.L	$F005E0, A1
0019E46E: 6100 EE04                BSR.W	$19D274
0019E472: 4E75                     RTS.L	
0019E474: 48E7 01C0                MVMLE.L	D7/A0-A1, -(A7)
0019E478: 2079 001A 7AE0           MOVEA.L	$1A7AE0, A0
0019E47E: 2279 001A 7AE4           MOVEA.L	$1A7AE4, A1
0019E484: 4258                     CLR.W	(A0)+
0019E486: B3C8                     CMPA.L	A0, A1
0019E488: 66FA                     BNE.B	$19E484 (false)
0019E48A: 2079 001A 7AEC           MOVEA.L	$1A7AEC, A0
0019E490: 2E39 001A 7A98           MOVE.L	$1A7A98, D7
0019E496: 5387                     SUB.L	#$1, D7
0019E498: 217C FFFF FFFF 0000      MOVE.L	#$FFFFFFFF, (A0,$0) == $16A9C0
0019E4A0: 217C 00F0 30A4 0028      MOVE.L	#$F030A4, (A0,$28) == $16A9E8
0019E4A8: 41E8 002C                LEA.L	(A0,$2C) == $16A9EC, A0
0019E4AC: 51CF FFEA                DBRN.W	D7, $19E498 (false)
0019E4B0: 4CDF 0380                MVMEL.L	(A7)+, D7/A0-A1
0019E4B4: 4E75                     RTS.L	
0019E4B6: 0000 0000                OR.B	#$0, D0
0019E4BA: 0000 0000                OR.B	#$0, D0
0019E4BE: 0000 0000                OR.B	#$0, D0
0019E4C2: 0000 0000                OR.B	#$0, D0
0019E4C6: 0000 0000                OR.B	#$0, D0
0019E4CA: 0000 0000                OR.B	#$0, D0
0019E4CE: 0000 0000                OR.B	#$0, D0
0019E4D2: 0000 0000                OR.B	#$0, D0
0019E4D6: 0000 0000                OR.B	#$0, D0
0019E4DA: 0000 0000                OR.B	#$0, D0
0019E4DE: 0000 0000                OR.B	#$0, D0
0019E4E2: 0000 0000                OR.B	#$0, D0
0019E4E6: 0000 0000                OR.B	#$0, D0
0019E4EA: 0000 0000                OR.B	#$0, D0
0019E4EE: 0000 0000                OR.B	#$0, D0
0019E4F2: 0000 0000                OR.B	#$0, D0
0019E4F6: 0000 0000                OR.B	#$0, D0
0019E4FA: 48E7 FFFE                MVMLE.L	D0-D7/A0-A6, -(A7)
0019E4FE: 2C79 00F0 30A8           MOVEA.L	$F030A8, A6
0019E504: E240                     ASR.W	#$1, D0
0019E506: C07C FFFE                AND.W	#$FFFE, D0
0019E50A: DCC0                     ADDA.W	D0, A6
0019E50C: 2839 001A 7AA8           MOVE.L	$1A7AA8, D4
0019E512: E284                     ASR.L	#$1, D4
0019E514: C2C4                     MULU.W	D4, D1
0019E516: DDC1                     ADDA.L	D1, A6
0019E518: 4BF9 0019 E7BE           LEA.L	$19E7BE, A5
0019E51E: E942                     ASL.W	#$4, D2
0019E520: 23F5 200C 0019 E776      MOVE.L	(A5, D2.W*1, $C) == $552E, $19E776
0019E528: 3A35 200A                MOVE.W	(A5, D2.W*1, $A) == $552C, D5
0019E52C: 3C35 2008                MOVE.W	(A5, D2.W*1, $8) == $552A, D6
0019E530: 2035 2004                MOVE.L	(A5, D2.W*1, $4) == $5526, D0
0019E534: 43F9 0019 E57A           LEA.L	$19E57A, A1
0019E53A: 23F1 0000 0019 E576      MOVE.L	(A1, D0.W*1, $0) == $1D1E00, $19E576
0019E542: 2A75 2000                MOVEA.L	(A5, D2.W*1, $0) == $5522, A5
0019E546: 23CD 0019 E77A           MOVE.L	A5, $19E77A
0019E54C: 4A43                     TST.W	D3
0019E54E: 670A                     BEQ.B	$19E55A (true)
0019E550: 2039 0019 E776           MOVE.L	$19E776, D0
0019E556: C0C3                     MULU.W	D3, D0
0019E558: DBC0                     ADDA.L	D0, A5
0019E55A: 23CE 0019 E796           MOVE.L	A6, $19E796
0019E560: 7000                     MOVE.L	#$0, D0
0019E562: 1018                     MOVE.B	(A0)+, D0
0019E564: 6B00 0138                BMI.W	$19E69E (false)
0019E568: 6700 016C                BEQ.W	$19E6D6 (true)
0019E56C: 903C 0020                SUB.B	#$20, D0
0019E570: 284D                     MOVEA.L	A5, A4
0019E572: 264E                     MOVEA.L	A6, A3
0019E574: 4EF9 0000 0000           JMP.L	$0
0019E57A: 0019 E586                OR.B	#$86, (A1)+
0019E57E: 0019 E5B2                OR.B	#$B2, (A1)+
0019E582: 0019 E604                OR.B	#$4, (A1)+
0019E586: EB48                     LSL.W	#$5, D0
0019E588: D9C0                     ADDA.L	D0, A4
0019E58A: 4CDC 06AF                MVMEL.L	(A4)+, D0-D3/D5/D7/A1-A2
0019E58E: 2680                     MOVE.L	D0, (A3)
0019E590: D7C4                     ADDA.L	D4, A3
0019E592: 2681                     MOVE.L	D1, (A3)
0019E594: D7C4                     ADDA.L	D4, A3
0019E596: 2682                     MOVE.L	D2, (A3)
0019E598: D7C4                     ADDA.L	D4, A3
0019E59A: 2683                     MOVE.L	D3, (A3)
0019E59C: D7C4                     ADDA.L	D4, A3
0019E59E: 2685                     MOVE.L	D5, (A3)
0019E5A0: D7C4                     ADDA.L	D4, A3
0019E5A2: 2687                     MOVE.L	D7, (A3)
0019E5A4: D7C4                     ADDA.L	D4, A3
0019E5A6: 2689                     MOVE.L	A1, (A3)
0019E5A8: D7C4                     ADDA.L	D4, A3
0019E5AA: 268A                     MOVE.L	A2, (A3)
0019E5AC: 4DEE 0004                LEA.L	(A6,$4) == $19DB6C, A6
0019E5B0: 60AE                     BRA.B	$19E560 (true)
0019E5B2: ED48                     LSL.W	#$6, D0
0019E5B4: D9C0                     ADDA.L	D0, A4
0019E5B6: 4CDC 06AF                MVMEL.L	(A4)+, D0-D3/D5/D7/A1-A2
0019E5BA: 2680                     MOVE.L	D0, (A3)
0019E5BC: D7C4                     ADDA.L	D4, A3
0019E5BE: 2681                     MOVE.L	D1, (A3)
0019E5C0: D7C4                     ADDA.L	D4, A3
0019E5C2: 2682                     MOVE.L	D2, (A3)
0019E5C4: D7C4                     ADDA.L	D4, A3
0019E5C6: 2683                     MOVE.L	D3, (A3)
0019E5C8: D7C4                     ADDA.L	D4, A3
0019E5CA: 2685                     MOVE.L	D5, (A3)
0019E5CC: D7C4                     ADDA.L	D4, A3
0019E5CE: 2687                     MOVE.L	D7, (A3)
0019E5D0: D7C4                     ADDA.L	D4, A3
0019E5D2: 2689                     MOVE.L	A1, (A3)
0019E5D4: D7C4                     ADDA.L	D4, A3
0019E5D6: 268A                     MOVE.L	A2, (A3)
0019E5D8: D7C4                     ADDA.L	D4, A3
0019E5DA: 4CDC 06AF                MVMEL.L	(A4)+, D0-D3/D5/D7/A1-A2
0019E5DE: 2680                     MOVE.L	D0, (A3)
0019E5E0: D7C4                     ADDA.L	D4, A3
0019E5E2: 2681                     MOVE.L	D1, (A3)
0019E5E4: D7C4                     ADDA.L	D4, A3
0019E5E6: 2682                     MOVE.L	D2, (A3)
0019E5E8: D7C4                     ADDA.L	D4, A3
0019E5EA: 2683                     MOVE.L	D3, (A3)
0019E5EC: D7C4                     ADDA.L	D4, A3
0019E5EE: 2685                     MOVE.L	D5, (A3)
0019E5F0: D7C4                     ADDA.L	D4, A3
0019E5F2: 2687                     MOVE.L	D7, (A3)
0019E5F4: D7C4                     ADDA.L	D4, A3
0019E5F6: 2689                     MOVE.L	A1, (A3)
0019E5F8: D7C4                     ADDA.L	D4, A3
0019E5FA: 268A                     MOVE.L	A2, (A3)
0019E5FC: 4DEE 0004                LEA.L	(A6,$4) == $19DB6C, A6
0019E600: 6000 FF5E                BRA.W	$19E560 (true)
0019E604: EF88                     LSL.L	#$7, D0
0019E606: D8C0                     ADDA.W	D0, A4
0019E608: 4CDC 06AF                MVMEL.L	(A4)+, D0-D3/D5/D7/A1-A2
0019E60C: 2680                     MOVE.L	D0, (A3)
0019E60E: 2741 0004                MOVE.L	D1, (A3,$4) == $4
0019E612: D7C4                     ADDA.L	D4, A3
0019E614: 2682                     MOVE.L	D2, (A3)
0019E616: 2743 0004                MOVE.L	D3, (A3,$4) == $4
0019E61A: D7C4                     ADDA.L	D4, A3
0019E61C: 2685                     MOVE.L	D5, (A3)
0019E61E: 2747 0004                MOVE.L	D7, (A3,$4) == $4
0019E622: D7C4                     ADDA.L	D4, A3
0019E624: 2689                     MOVE.L	A1, (A3)
0019E626: 274A 0004                MOVE.L	A2, (A3,$4) == $4
0019E62A: D7C4                     ADDA.L	D4, A3
0019E62C: 4CDC 06AF                MVMEL.L	(A4)+, D0-D3/D5/D7/A1-A2
0019E630: 2680                     MOVE.L	D0, (A3)
0019E632: 2741 0004                MOVE.L	D1, (A3,$4) == $4
0019E636: D7C4                     ADDA.L	D4, A3
0019E638: 2682                     MOVE.L	D2, (A3)
0019E63A: 2743 0004                MOVE.L	D3, (A3,$4) == $4
0019E63E: D7C4                     ADDA.L	D4, A3
0019E640: 2685                     MOVE.L	D5, (A3)
0019E642: 2747 0004                MOVE.L	D7, (A3,$4) == $4
0019E646: D7C4                     ADDA.L	D4, A3
0019E648: 2689                     MOVE.L	A1, (A3)
0019E64A: 274A 0004                MOVE.L	A2, (A3,$4) == $4
0019E64E: D7C4                     ADDA.L	D4, A3
0019E650: 4CDC 06AF                MVMEL.L	(A4)+, D0-D3/D5/D7/A1-A2
0019E654: 2680                     MOVE.L	D0, (A3)
0019E656: 2741 0004                MOVE.L	D1, (A3,$4) == $4
0019E65A: D7C4                     ADDA.L	D4, A3
0019E65C: 2682                     MOVE.L	D2, (A3)
0019E65E: 2743 0004                MOVE.L	D3, (A3,$4) == $4
0019E662: D7C4                     ADDA.L	D4, A3
0019E664: 2685                     MOVE.L	D5, (A3)
0019E666: 2747 0004                MOVE.L	D7, (A3,$4) == $4
0019E66A: D7C4                     ADDA.L	D4, A3
0019E66C: 2689                     MOVE.L	A1, (A3)
0019E66E: 274A 0004                MOVE.L	A2, (A3,$4) == $4
0019E672: D7C4                     ADDA.L	D4, A3
0019E674: 4CDC 06AF                MVMEL.L	(A4)+, D0-D3/D5/D7/A1-A2
0019E678: 2680                     MOVE.L	D0, (A3)
0019E67A: 2741 0004                MOVE.L	D1, (A3,$4) == $4
0019E67E: D7C4                     ADDA.L	D4, A3
0019E680: 2682                     MOVE.L	D2, (A3)
0019E682: 2743 0004                MOVE.L	D3, (A3,$4) == $4
0019E686: D7C4                     ADDA.L	D4, A3
0019E688: 2685                     MOVE.L	D5, (A3)
0019E68A: 2747 0004                MOVE.L	D7, (A3,$4) == $4
0019E68E: D7C4                     ADDA.L	D4, A3
0019E690: 2689                     MOVE.L	A1, (A3)
0019E692: 274A 0004                MOVE.L	A2, (A3,$4) == $4
0019E696: 4DEE 0008                LEA.L	(A6,$8) == $19DB70, A6
0019E69A: 6000 FEC4                BRA.W	$19E560 (true)
0019E69E: 47F9 0019 E6B6           LEA.L	$19E6B6, A3
0019E6A4: 4400                     NEG.B	D0
0019E6A6: C0BC 0000 00FF           AND.L	#$FF, D0
0019E6AC: D040                     ADD.W	D0, D0
0019E6AE: D040                     ADD.W	D0, D0
0019E6B0: 2673 0000                MOVEA.L	(A3, D0.W*1, $0) == $0, A3
0019E6B4: 4ED3                     JMP.L	(A3)
0019E6B6: 0000 0000                OR.B	#$0, D0
0019E6BA: 0019 E6D6                OR.B	#$D6, (A1)+
0019E6BE: 0019 E77E                OR.B	#$7E, (A1)+
0019E6C2: 0019 E75E                OR.B	#$5E, (A1)+
0019E6C6: 0019 E722                OR.B	#$22, (A1)+
0019E6CA: 0019 E6FE                OR.B	#$FE, (A1)+
0019E6CE: 0019 E6EE                OR.B	#$EE, (A1)+
0019E6D2: 0019 E79A                OR.B	#$9A, (A1)+
0019E6D6: 48F9 7EF3 0019 E4B6      MVMLE.L	D1-D6/A0-A3/A6-A7, $19E4B6
0019E6DE: 23F9 0019 E796 0019 E4F6 MOVE.L	$19E796, $19E4F6
0019E6E8: 4CDF 7FFF                MVMEL.L	(A7)+, D0-D7/A0-A6
0019E6EC: 4E75                     RTS.L	
0019E6EE: 2C79 00F0 30A8           MOVEA.L	$F030A8, A6
0019E6F4: 23CE 0019 E796           MOVE.L	A6, $19E796
0019E6FA: 6000 FE64                BRA.W	$19E560 (true)
0019E6FE: 7000                     MOVE.L	#$0, D0
0019E700: 7200                     MOVE.L	#$0, D1
0019E702: 1018                     MOVE.B	(A0)+, D0
0019E704: 1218                     MOVE.B	(A0)+, D1
0019E706: 2C79 00F0 30A8           MOVEA.L	$F030A8, A6
0019E70C: E240                     ASR.W	#$1, D0
0019E70E: C07C FFFE                AND.W	#$FFFE, D0
0019E712: DCC0                     ADDA.W	D0, A6
0019E714: C2C4                     MULU.W	D4, D1
0019E716: DDC1                     ADDA.L	D1, A6
0019E718: 23CE 0019 E796           MOVE.L	A6, $19E796
0019E71E: 6000 FE40                BRA.W	$19E560 (true)
0019E722: 4BF9 0019 E7BE           LEA.L	$19E7BE, A5
0019E728: 7400                     MOVE.L	#$0, D2
0019E72A: 1418                     MOVE.B	(A0)+, D2
0019E72C: E942                     ASL.W	#$4, D2
0019E72E: 2035 2004                MOVE.L	(A5, D2.W*1, $4) == $5526, D0
0019E732: 43F9 0019 E57A           LEA.L	$19E57A, A1
0019E738: 23F1 0000 0019 E576      MOVE.L	(A1, D0.W*1, $0) == $1D1E00, $19E576
0019E740: 23F5 200C 0019 E776      MOVE.L	(A5, D2.W*1, $C) == $552E, $19E776
0019E748: 3A35 200A                MOVE.W	(A5, D2.W*1, $A) == $552C, D5
0019E74C: 3C35 2008                MOVE.W	(A5, D2.W*1, $8) == $552A, D6
0019E750: 2A75 2000                MOVEA.L	(A5, D2.W*1, $0) == $5522, A5
0019E754: 23CD 0019 E77A           MOVE.L	A5, $19E77A
0019E75A: 6000 FE04                BRA.W	$19E560 (true)
0019E75E: 7000                     MOVE.L	#$0, D0
0019E760: 1018                     MOVE.B	(A0)+, D0
0019E762: 2439 0019 E776           MOVE.L	$19E776, D2
0019E768: C0C2                     MULU.W	D2, D0
0019E76A: 2A79 0019 E77A           MOVEA.L	$19E77A, A5
0019E770: DBC0                     ADDA.L	D0, A5
0019E772: 6000 FDEC                BRA.W	$19E560 (true)
0019E776: 0000 0000                OR.B	#$0, D0
0019E77A: 0000 0000                OR.B	#$0, D0
0019E77E: 2C79 0019 E796           MOVEA.L	$19E796, A6
0019E784: 2406                     MOVE.L	D6, D2
0019E786: DDC4                     ADDA.L	D4, A6
0019E788: D9B9 0019 E796           ADD.L	D4, $19E796
0019E78E: 51CA FFF6                DBRN.W	D2, $19E786 (false)
0019E792: 6000 FDCC                BRA.W	$19E560 (true)
0019E796: 0000 0000                OR.B	#$0, D0
0019E79A: 4DEE 0002                LEA.L	(A6,$2) == $19DB6A, A6
0019E79E: 6000 FDC0                BRA.W	$19E560 (true)
0019E7A2: 23F9 0019 E4F6 0019 E796 MOVE.L	$19E4F6, $19E796
0019E7AC: 6000 FD6A                BRA.W	$19E518 (true)
0019E7B0: 48E7 FFFE                MVMLE.L	D0-D7/A0-A6, -(A7)
0019E7B4: 4CF9 7EF3 0019 E4B6      MVMEL.L	$19E4B6, D0-D1/D4-D7/A1-A6
0019E7BC: 60E4                     BRA.B	$19E7A2 (true)
0019E7BE: 0000 5288                OR.B	#$88, D0
0019E7C2: 0000 0000                OR.B	#$0, D0
0019E7C6: 0007 0002                OR.B	#$2, D7
0019E7CA: 0000 0F00                OR.B	#$0, D0
0019E7CE: 0000 8F00                OR.B	#$0, D0
0019E7D2: 0000 0004                OR.B	#$4, D0
0019E7D6: 000F                     ILLEGAL.L	
0019E7D8: 0002 0000                OR.B	#$0, D2
0019E7DC: 1E00                     MOVE.B	D0, D7
0019E7DE: 0000 CB80                OR.B	#$80, D0
0019E7E2: 0000 0008                OR.B	#$8, D0
0019E7E6: 000F                     ILLEGAL.L	
0019E7E8: 0003 0000                OR.B	#$0, D3
0019E7EC: 3C00                     MOVE.W	D0, D6
0019E7EE: 48E7 FFFE                MVMLE.L	D0-D7/A0-A6, -(A7)
0019E7F2: 2E00                     MOVE.L	D0, D7
0019E7F4: 1018                     MOVE.B	(A0)+, D0
0019E7F6: 1200                     MOVE.B	D0, D1
0019E7F8: C0BC 0000 000F           AND.L	#$F, D0
0019E7FE: E899                     ROR.L	#$4, D1
0019E800: C2BC 0000 000F           AND.L	#$F, D1
0019E806: 12FB 1010                MOVE.B	(PC, D1.W*1, $10) == $19E818, (A1)+
0019E80A: 12FB 000C                MOVE.B	(PC, D0.W*1, $C) == $19E818, (A1)+
0019E80E: 51CF FFE4                DBRN.W	D7, $19E7F4 (false)
0019E812: 4CDF 7FFF                MVMEL.L	(A7)+, D0-D7/A0-A6
0019E816: 4E75                     RTS.L	
0019E818: 3031 3233                MOVE.W	(A1, D3.W*2, $33) == $1D9E29, D0
0019E81C: 3435 3637                MOVE.W	(A5, D3.W*8, $37) == $25141, D2
0019E820: 3839 4142 4344           MOVE.W	$41424344, D4
0019E826: 4546                     ILLEGAL.L	
0019E828: 48E7 FD10                MVMLE.L	D0-D5/D7/A3, -(A7)
0019E82C: 2F08                     MOVE.L	A0, -(A7)
0019E82E: 47FA 003C                LEA.L	(PC, $3C) == $19E86C, A3
0019E832: 3A04                     MOVE.W	D4, D5
0019E834: E54D                     LSL.W	#$2, D5
0019E836: 47F3 5004                LEA.L	(A3, D5.W*1, $4) == $3, A3
0019E83A: 7A30                     MOVE.L	#$30, D5
0019E83C: 2623                     MOVE.L	-(A3), D3
0019E83E: 74D0                     MOVE.L	#$FFFFFFD0, D2
0019E840: 9283                     SUB.L	D3, D1
0019E842: 55CA FFFC                DBCS.W	D2, $19E840 (false)
0019E846: 4402                     NEG.B	D2
0019E848: 1002                     MOVE.B	D2, D0
0019E84A: B03C 0030                CMP.B	#$30, D0
0019E84E: 6712                     BEQ.B	$19E862 (true)
0019E850: 7A30                     MOVE.L	#$30, D5
0019E852: 10C0                     MOVE.B	D0, (A0)+
0019E854: D283                     ADD.L	D3, D1
0019E856: 51CC FFE4                DBRN.W	D4, $19E83C (false)
0019E85A: 205F                     MOVEA.L	(A7)+, A0
0019E85C: 4CDF 08BF                MVMEL.L	(A7)+, D0-D5/D7/A3
0019E860: 4E75                     RTS.L	
0019E862: 3005                     MOVE.W	D5, D0
0019E864: 4A44                     TST.W	D4
0019E866: 66EA                     BNE.B	$19E852 (false)
0019E868: 7030                     MOVE.L	#$30, D0
0019E86A: 60E6                     BRA.B	$19E852 (true)
0019E86C: 0000 0001                OR.B	#$1, D0
0019E870: 0000 000A                OR.B	#$A, D0
0019E874: 0000 0064                OR.B	#$64, D0
0019E878: 0000 03E8                OR.B	#$E8, D0
0019E87C: 0000 2710                OR.B	#$10, D0
0019E880: 0001 86A0                OR.B	#$A0, D1
0019E884: 000F                     ILLEGAL.L	
0019E886: 4240                     CLR.W	D0
0019E888: 0098 9680 05F5           OR.L	#$968005F5, (A0)+
0019E88E: E100                     ASL.B	#$8, D0
0019E890: 3B9A CA00                MOVE.W	(A2)+, (A5, A4.L*2, $0) == $33D50A
0019E894: 0000 0000                OR.B	#$0, D0
0019E898: 0000 0000                OR.B	#$0, D0
0019E89C: 0000 0000                OR.B	#$0, D0
0019E8A0: 0000 3000                OR.B	#$0, D0
0019E8A4: 0000 0000                OR.B	#$0, D0
0019E8A8: 0000 2FFF                OR.B	#$FF, D0
0019E8AC: 0000 0097                OR.B	#$97, D0
0019E8B0: 0000 2FFC                OR.B	#$FC, D0
0019E8B4: 0000 012E                OR.B	#$2E, D0
0019E8B8: 0000 2FF8                OR.B	#$F8, D0
0019E8BC: 0000 01C4                OR.B	#$C4, D0
0019E8C0: 0000 2FF1                OR.B	#$F1, D0
0019E8C4: 0000 025B                OR.B	#$5B, D0
0019E8C8: 0000 2FE9                OR.B	#$E9, D0
0019E8CC: 0000 02F2                OR.B	#$F2, D0
0019E8D0: 0000 2FDF                OR.B	#$DF, D0
0019E8D4: 0000 0388                OR.B	#$88, D0
0019E8D8: 0000 2FD3                OR.B	#$D3, D0
0019E8DC: 0000 041E                OR.B	#$1E, D0
0019E8E0: 0000 2FC5                OR.B	#$C5, D0
0019E8E4: 0000 04B4                OR.B	#$B4, D0
0019E8E8: 0000 2FB5                OR.B	#$B5, D0
0019E8EC: 0000 054A                OR.B	#$4A, D0
0019E8F0: 0000 2FA4                OR.B	#$A4, D0
0019E8F4: 0000 05E0                OR.B	#$E0, D0
0019E8F8: 0000 2F90                OR.B	#$90, D0
0019E8FC: 0000 0676                OR.B	#$76, D0
0019E900: 0000 2F7B                OR.B	#$7B, D0
0019E904: 0000 070B                OR.B	#$B, D0
0019E908: 0000 2F64                OR.B	#$64, D0
0019E90C: 0000 07A0                OR.B	#$A0, D0
0019E910: 0000 2F4B                OR.B	#$4B, D0
0019E914: 0000 0835                OR.B	#$35, D0
0019E918: 0000 2F30                OR.B	#$30, D0
0019E91C: 0000 08C9                OR.B	#$C9, D0
0019E920: 0000 2F14                OR.B	#$14, D0
0019E924: 0000 095D                OR.B	#$5D, D0
0019E928: 0000 2EF6                OR.B	#$F6, D0
0019E92C: 0000 09F1                OR.B	#$F1, D0
0019E930: 0000 2ED5                OR.B	#$D5, D0
0019E934: 0000 0A84                OR.B	#$84, D0
0019E938: 0000 2EB3                OR.B	#$B3, D0
0019E93C: 0000 0B17                OR.B	#$17, D0
0019E940: 0000 2E90                OR.B	#$90, D0
0019E944: 0000 0BAA                OR.B	#$AA, D0
0019E948: 0000 2E6A                OR.B	#$6A, D0
0019E94C: 0000 0C3C                OR.B	#$3C, D0
0019E950: 0000 2E43                OR.B	#$43, D0
0019E954: 0000 0CCD                OR.B	#$CD, D0
0019E958: 0000 2E1A                OR.B	#$1A, D0
0019E95C: 0000 0D5E                OR.B	#$5E, D0
0019E960: 0000 2DEF                OR.B	#$EF, D0
0019E964: 0000 0DEF                OR.B	#$EF, D0
0019E968: 0000 2DC2                OR.B	#$C2, D0
0019E96C: 0000 0E7F                OR.B	#$7F, D0
0019E970: 0000 2D94                OR.B	#$94, D0
0019E974: 0000 0F0F                OR.B	#$F, D0
0019E978: 0000 2D64                OR.B	#$64, D0
0019E97C: 0000 0F9D                OR.B	#$9D, D0
0019E980: 0000 2D32                OR.B	#$32, D0
0019E984: 0000 102C                OR.B	#$2C, D0
0019E988: 0000 2CFE                OR.B	#$FE, D0
0019E98C: 0000 10B9                OR.B	#$B9, D0
0019E990: 0000 2CC9                OR.B	#$C9, D0
0019E994: 0000 1146                OR.B	#$46, D0
0019E998: 0000 2C91                OR.B	#$91, D0
0019E99C: 0000 11D3                OR.B	#$D3, D0
0019E9A0: 0000 2C59                OR.B	#$59, D0
0019E9A4: 0000 125E                OR.B	#$5E, D0
0019E9A8: 0000 2C1E                OR.B	#$1E, D0
0019E9AC: 0000 12E9                OR.B	#$E9, D0
0019E9B0: 0000 2BE2                OR.B	#$E2, D0
0019E9B4: 0000 1374                OR.B	#$74, D0
0019E9B8: 0000 2BA4                OR.B	#$A4, D0
0019E9BC: 0000 13FD                OR.B	#$FD, D0
0019E9C0: 0000 2B64                OR.B	#$64, D0
0019E9C4: 0000 1486                OR.B	#$86, D0
0019E9C8: 0000 2B23                OR.B	#$23, D0
0019E9CC: 0000 150E                OR.B	#$E, D0
0019E9D0: 0000 2AE0                OR.B	#$E0, D0
0019E9D4: 0000 1595                OR.B	#$95, D0
0019E9D8: 0000 2A9B                OR.B	#$9B, D0
0019E9DC: 0000 161B                OR.B	#$1B, D0
0019E9E0: 0000 2A55                OR.B	#$55, D0
0019E9E4: 0000 16A1                OR.B	#$A1, D0
0019E9E8: 0000 2A0D                OR.B	#$D, D0
0019E9EC: 0000 1725                OR.B	#$25, D0
0019E9F0: 0000 29C4                OR.B	#$C4, D0
0019E9F4: 0000 17A9                OR.B	#$A9, D0
0019E9F8: 0000 2978                OR.B	#$78, D0
0019E9FC: 0000 182B                OR.B	#$2B, D0
0019EA00: 0000 292C                OR.B	#$2C, D0
0019EA04: 0000 18AD                OR.B	#$AD, D0
0019EA08: 0000 28DD                OR.B	#$DD, D0
0019EA0C: 0000 192E                OR.B	#$2E, D0
0019EA10: 0000 288E                OR.B	#$8E, D0
0019EA14: 0000 19AE                OR.B	#$AE, D0
0019EA18: 0000 283C                OR.B	#$3C, D0
0019EA1C: 0000 1A2D                OR.B	#$2D, D0
0019EA20: 0000 27E9                OR.B	#$E9, D0
0019EA24: 0000 1AAB                OR.B	#$AB, D0
0019EA28: 0000 2795                OR.B	#$95, D0
0019EA2C: 0000 1B28                OR.B	#$28, D0
0019EA30: 0000 273E                OR.B	#$3E, D0
0019EA34: 0000 1BA4                OR.B	#$A4, D0
0019EA38: 0000 26E7                OR.B	#$E7, D0
0019EA3C: 0000 1C1E                OR.B	#$1E, D0
0019EA40: 0000 268E                OR.B	#$8E, D0
..................
handler 000 at .........
handler 001 at $00004000
handler 002 at $6B500000
handler 003 at $F53C0000
handler 004 at $A46E0000
handler 005 at $5E190000
handler 006 at $CB280000
handler 007 at $E41E0000
handler 008 at $EB150000
handler 009 at $8C110000
handler 010 at $78760000
handler 011 at $79120000
handler 012 at $99270000
handler 013 at $7A100000
handler 014 at $05720000
handler 015 at $097A0000
handler 016 at $80180000
handler 017 at $43240000
handler 018 at $756B0000
handler 019 at $A1360000
handler 020 at $49120000
handler 021 at $7A290000
handler 022 at $58000000
handler 023 at $99150000
handler 024 at $B87A0000
handler 025 at $64450000
handler 026 at $377D0000
handler 027 at $6C3C0000
handler 028 at $32000000
handler 029 at $64500000
handler 030 at $326E0000
handler 031 at $C7060000
handler 032 at $7C4F0000
handler 033 at $B6440000
handler 034 at $E8220000
handler 035 at $DF0A0000
handler 036 at $C5560000
handler 037 at $60050000
handler 038 at $97290000
handler 039 at $08380000
handler 040 at $E7390000
handler 041 at $66110000
handler 042 at $84050000
handler 043 at $84430000
handler 044 at $EA5B0000
handler 045 at $3E770000
handler 046 at $9E240000
handler 047 at $98570000
handler 048 at $C9210000
handler 049 at $831C0000
handler 050 at $5E580000
handler 051 at $E5380000
handler 052 at $79520000
handler 053 at $EE2D0000
handler 054 at $F1550000
handler 055 at $F6550000
handler 056 at $28380000
handler 057 at $814B0000
handler 058 at $99010000
handler 059 at $16750000
handler 060 at $C3660000
handler 061 at $05450000
handler 062 at $51090000
handler 063 at $64740000
handler 064 at $0019E300
handler 065 at $B77A0000
handler 066 at $B0120000
handler 067 at $29500000
handler 068 at $076B0000
handler 069 at $3F360000
handler 070 at $0F000000
handler 071 at $68630000
handler 072 at $6D6D0000
handler 073 at $E10F0000
handler 074 at $EE100000
handler 075 at $B7160000
handler 076 at $FD630000
handler 077 at $F7330000
handler 078 at $94610000
handler 079 at $4E710000
handler 080 at $DF640000
handler 081 at $9F1C0000
handler 082 at $F60D0000
handler 083 at $5E400000
handler 084 at $4F650000
handler 085 at $B1130000
handler 086 at $DA7B0000
handler 087 at $A4480000
handler 088 at $E6740000
handler 089 at $F4100000
handler 090 at $3C100000
handler 091 at $3D360000
handler 092 at $1B3E0000
handler 093 at $91480000
handler 094 at $F1530000
handler 095 at $BC3E0000
handler 096 at $09700000
handler 097 at $C77D0000
handler 098 at $8A4B0000
handler 099 at $7A290000
handler 100 at $73750000
handler 101 at $E16D0000
handler 102 at $7B060000
handler 103 at $2D320000
handler 104 at $051D0000
handler 105 at $65670000
handler 106 at $7D290000
handler 107 at $BC790000
handler 108 at $DC160000
handler 109 at $8F610000
handler 110 at $30780000
handler 111 at $52790000
handler 112 at $496B0000
handler 113 at $FD270000
handler 114 at $05220000
handler 115 at $B22B0000
handler 116 at $D24E0000
handler 117 at $AC6E0000
handler 118 at $5B560000
handler 119 at $CA600000
handler 120 at $7A770000
handler 121 at $23620000
handler 122 at $E8630000
handler 123 at $8A6F0000
handler 124 at $43570000
handler 125 at $EE070000
handler 126 at $5B670000
handler 127 at $F6390000
handler 128 at $F05F0000
handler 129 at $4E030000
handler 130 at $3F4D0000
handler 131 at $7A370000
handler 132 at $0F340000
handler 133 at $2F120000
handler 134 at $232B0000
handler 135 at $7E790000
handler 136 at $37690000
handler 137 at $5A560000
handler 138 at $F8330000
handler 139 at $3B5E0000
handler 140 at $8F3F0000
handler 141 at $EC3E0000
handler 142 at $BA4B0000
handler 143 at $CD650000
handler 144 at $8F720000
handler 145 at $07260000
handler 146 at $537E0000
handler 147 at $895D0000
handler 148 at $0B070000
handler 149 at $C7760000
handler 150 at $BC5D0000
handler 151 at $90550000
handler 152 at $6D3A0000
handler 153 at $786F0000
handler 154 at $650B0000
handler 155 at $A4140000
handler 156 at $42770000
handler 157 at $06540000
handler 158 at $D7700000
handler 159 at $3B7E0000
handler 160 at $F8720000
handler 161 at $B4240000
handler 162 at $986B0000
handler 163 at $D21E0000
handler 164 at $E5580000
handler 165 at $112D0000
handler 166 at $4E700000
handler 167 at $84520000
handler 168 at $8C260000
handler 169 at $297F0000
handler 170 at $28690000
handler 171 at $DB390000
handler 172 at $1C1D0000
handler 173 at $F82E0000
handler 174 at $7A530000
handler 175 at $E6700000
handler 176 at $3A6C0000
handler 177 at $24620000
handler 178 at $A7600000
handler 179 at $8C3C0000
handler 180 at $007A0000
handler 181 at $EB070000
handler 182 at $441E0000
handler 183 at $1F220000
handler 184 at $466C0000
handler 185 at $594D0000
handler 186 at $7A690000
handler 187 at $351D0000
handler 188 at $20570000
handler 189 at $BF210000
handler 190 at $AC310000
handler 191 at $B3670000
handler 192 at $A7340000
handler 193 at $625F0000
handler 194 at $5A4E0000
handler 195 at $2A080000
handler 196 at $FD090000
handler 197 at $706C0000
handler 198 at $466C0000
handler 199 at $671A0000
handler 200 at $8B5D0000
handler 201 at $38680000
handler 202 at $D5550000
handler 203 at $45060000
handler 204 at $8D620000
handler 205 at $99380000
handler 206 at $B71A0000
handler 207 at $C6180000
handler 208 at $D17D0000
handler 209 at $BB0B0000
handler 210 at $CA5A0000
handler 211 at $62330000
handler 212 at $BB070000
handler 213 at $FE210000
handler 214 at $3C380000
handler 215 at $9F050000
handler 216 at $8D6F0000
handler 217 at $30740000
handler 218 at $F1340000
handler 219 at $E2040000
handler 220 at $E5230000
handler 221 at $030A0000
handler 222 at $247F0000
handler 223 at $85160000
handler 224 at $88640000
handler 225 at $BE140000
handler 226 at $50710000
handler 227 at $29200000
handler 228 at $5D610000
handler 229 at $32220000
handler 230 at $51490000
handler 231 at $4E720000
handler 232 at $BD4A0000
handler 233 at $F07B0000
handler 234 at $C65A0000
handler 235 at $21410000
handler 236 at $EA360000
handler 237 at $B9060000
handler 238 at $BB400000
handler 239 at $941F0000
handler 240 at $DC000000
handler 241 at $36360000
handler 242 at $85520000
handler 243 at $B4300000
handler 244 at $44040000
handler 245 at $E9680000
handler 246 at $EC5F0000
handler 247 at $38030000
handler 248 at $CB5A0000
handler 249 at $64400000
handler 250 at $90780000
handler 251 at $554B0000
handler 252 at $9A7E0000
handler 253 at $B9490000
handler 254 at $85420000
handler 255 at $DA6E0000
CDINTF: Shutting down CD-ROM subsystem.
GPU: Stopped at PC=00F03BE0 (GPU wasn't running)
GPU: Latch bits = 00, enable bits = 00

---[GPU flags: NCZ 001]-----------------------

Registers bank 0
	R00 = 00000000 R01 = 00F02114 R02 = 00F0314A R03 = 000000C0
	R04 = 0000005C R05 = 00000170 R06 = 000000F0 R07 = FFFFFFFF
	R08 = 000001FF R09 = 00000000 R10 = 00000000 R11 = 00000001
	R12 = 00000170 R13 = 003C0000 R14 = 001D1DF8 R15 = 0019E8A0
	R16 = 000002D0 R17 = 000000F0 R18 = 583C0100 R19 = 00004000
	R20 = 00009E01 R21 = FFFFE1FF R22 = 000003FF R23 = FF003FFF
	R24 = 00F03BA0 R25 = 00F03BCC R26 = FF000007 R27 = 00F03356
	R28 = 00F03332 R29 = FFFFFFFF R30 = 001AE8E0 R31 = 00000000
Registers bank 1
	R00 = FFFFFFFF R01 = 00000010 R02 = 00000000 R03 = 00000000
	R04 = 00000000 R05 = 00000000 R06 = 00000000 R07 = 00000000
	R08 = 00000000 R09 = 00000000 R10 = 00000000 R11 = 00000000
	R12 = 00000000 R13 = 00000000 R14 = 00000000 R15 = 00000000
	R16 = 00000000 R17 = 00000000 R18 = 00000000 R19 = 00000004
	R20 = 00000000 R21 = 00000000 R22 = 00000000 R23 = 00000000
	R24 = 00000000 R25 = 00000000 R26 = 00000000 R27 = 00000000
	R28 = 00000000 R29 = 00000000 R30 = 00000000 R31 = 00000000

---[GPU code at 00F03000]---------------------------
	00F03000: 0E0F            ADDQT   $10,R15         
	00F03002: 0000            ADD     R00,R00         
	00F03004: 8420            SAT16   R00             
	00F03006: 0000            ADD     R00,R00         
	00F03008: F32D            STORE   R13,(R14+R25)   
	00F0300A: 0000            ADD     R00,R00         
	00F0300C: 5D44            SH      R10,R04         
	00F0300E: 0000            ADD     R00,R00         
	00F03010: 6C78            SHARQ   $3,R24          
	00F03012: 0000            ADD     R00,R00         
	00F03014: 061C            ADDC    R16,R28         
	00F03016: 0000            ADD     R00,R00         
	00F03018: D340            JUMP    (R26)           
	00F0301A: 0000            ADD     R00,R00         
	00F0301C: CC76            MOVE    PC,R22          
	00F0301E: 0000            ADD     R00,R00         
	00F03020: 332E            NOT     R14             
	00F03022: 0000            ADD     R00,R00         
	00F03024: B468            STOREB  R08,(R03)       
	00F03026: 0000            ADD     R00,R00         
	00F03028: 0011            ADD     R00,R17         
	00F0302A: 0000            ADD     R00,R00         
	00F0302C: E162            NORMI   R11,R02         
	00F0302E: 0000            ADD     R00,R00         
	00F03030: 6156            SHLQ    $16,R22         
	00F03032: 0000            ADD     R00,R00         
	00F03034: 2224            NEG     R04             
	00F03036: 0000            ADD     R00,R00         
	00F03038: 0D57            ADDQT   $A,R23          
	00F0303A: 0000            ADD     R00,R00         
	00F0303C: F16A            STORE   R10,(R14+R11)   
	00F0303E: 0000            ADD     R00,R00         
	00F03040: C865            STORE   R05,(R15+$C)    
	00F03042: 0000            ADD     R00,R00         
	00F03044: 6B5C            SHA     R26,R28         
	00F03046: 0000            ADD     R00,R00         
	00F03048: FD62            UNPACK  R02             
	00F0304A: 0000            ADD     R00,R00         
	00F0304C: 0970            ADDQ    $B,R16          
	00F0304E: 0000            ADD     R00,R00         
	00F03050: 1106            SUB     R08,R06         
	00F03052: 0000            ADD     R00,R00         
	00F03054: 226E            NEG     R14             
	00F03056: 0000            ADD     R00,R00         
	00F03058: 6052            SHLQ    $1E,R18         
	00F0305A: 0000            ADD     R00,R00         
	00F0305C: 813F            SAT8    R31             
	00F0305E: 0000            ADD     R00,R00         
	00F03060: 001D            ADD     R00,R29         
	00F03062: 0000            ADD     R00,R00         
	00F03064: 8C7E            MOVEQ   3,R30           
	00F03066: 0000            ADD     R00,R00         
	00F03068: BF71            STORE   R17,(R27)       
	00F0306A: 0000            ADD     R00,R00         
	00F0306C: D47E            JR      ???,$F03074     
	00F0306E: 0000            ADD     R00,R00         
	00F03070: FA58            SAT24   R24             
	00F03072: 0000            ADD     R00,R00         
	00F03074: 0C66            ADDQT   $3,R06          
	00F03076: 0000            ADD     R00,R00         
	00F03078: 3A4D            BSET    $12,R13         
	00F0307A: 0000            ADD     R00,R00         
	00F0307C: AF09            LOAD    (R14+$60),R09   
	00F0307E: 0000            ADD     R00,R00         
	00F03080: 001B            ADD     R00,R27         
	00F03082: 9560            MOVEFA  R11,R00         
	00F03084: 0000            ADD     R00,R00         
	00F03086: 0012            ADD     R00,R18         
	00F03088: 0000            ADD     R00,R00         
	00F0308A: 0000            ADD     R00,R00         
	00F0308C: 0000            ADD     R00,R00         
	00F0308E: 0000            ADD     R00,R00         
	00F03090: 0000            ADD     R00,R00         
	00F03092: 0000            ADD     R00,R00         
	00F03094: 0000            ADD     R00,R00         
	00F03096: 0000            ADD     R00,R00         
	00F03098: 0000            ADD     R00,R00         
	00F0309A: 0000            ADD     R00,R00         
	00F0309C: 0000            ADD     R00,R00         
	00F0309E: 0001            ADD     R00,R01         
	00F030A0: 0000            ADD     R00,R00         
	00F030A2: 0000            ADD     R00,R00         
	00F030A4: 0000            ADD     R00,R00         
	00F030A6: 0000            ADD     R00,R00         
	00F030A8: 001A            ADD     R00,R26         
	00F030AA: E8E0            LOAD    (R14+R07),R00   
	00F030AC: 0000            ADD     R00,R00         
	00F030AE: 0000            ADD     R00,R00         
	00F030B0: 0000            ADD     R00,R00         
	00F030B2: 0000            ADD     R00,R00         
	00F030B4: 0000            ADD     R00,R00         
	00F030B6: 0000            ADD     R00,R00         
	00F030B8: 03F0            ADD     R31,R16         
	00F030BA: 0C00            ADDQT   $20,R00         
	00F030BC: 0000            ADD     R00,R00         
	00F030BE: 0000            ADD     R00,R00         
	00F030C0: 0000            ADD     R00,R00         
	00F030C2: 0000            ADD     R00,R00         
	00F030C4: 9800 3084 00F0  MOVEI   #$F03084,R00    
	00F030CA: 980E 3080 00F0  MOVEI   #$F03080,R14    
	00F030D0: 9801 E3CE 0019  MOVEI   #$19E3CE,R01    
	00F030D6: 9816 03FF 0000  MOVEI   #$3FF,R22       
	00F030DC: A021            LOADW   (R01),R01       
	00F030DE: A400            LOAD    (R00),R00       
	00F030E0: 9815 E1FF FFFF  MOVEI   #$FFFFE1FF,R21  
	00F030E6: 9817 3FFF FF00  MOVEI   #$FF003FFF,R23  
	00F030EC: 9818 0FFF 0000  MOVEI   #$FFF,R24       
	00F030F2: 9819 8000 0000  MOVEI   #$8000,R25      
	00F030F8: 981A 0007 FF00  MOVEI   #$FF000007,R26  
	00F030FE: 9811 00F0 0000  MOVEI   #$F0,R17        
	00F03104: 7C21            CMPQ    $1,R01          
	00F03106: D502            JR      z,$F03118       
	00F03108: 8E01            MOVEQ   16,R01          
	00F0310A: E400            NOP                     
	00F0310C: 9811 0100 0000  MOVEI   #$100,R17       
	00F03112: 9801 002A 0000  MOVEI   #$2A,R01        
	00F03118: 9021            MOVETA  R01,R01         
	00F0311A: 9000            MOVETA  R00,R00         
	00F0311C: A5CE            LOAD    (R14),R14       
	00F0311E: 9800 35E8 00F0  MOVEI   #$F035E8,R00    
	00F03124: 981B 3356 00F0  MOVEI   #$F03356,R27    
	00F0312A: 981C 3332 00F0  MOVEI   #$F03332,R28    
	00F03130: 980A 30B4 00F0  MOVEI   #$F030B4,R10    
	00F03136: 981D 328E 00F0  MOVEI   #$F0328E,R29    
	00F0313C: 981F 34F8 00F0  MOVEI   #$F034F8,R31    
	00F03142: 981E 335C 00F0  MOVEI   #$F0335C,R30    
	00F03148: BC0A            STORE   R10,(R00)       
	00F0314A: 9814 0094 0000  MOVEI   #$94,R20        
	00F03150: 89CF            MOVE    R14,R15         
	00F03152: 9809 31F4 00F0  MOVEI   #$F031F4,R09    
	00F03158: 028F            ADD     R20,R15         
	00F0315A: 9808 322C 00F0  MOVEI   #$F0322C,R08    
	00F03160: AC20            LOAD    (R14+$4),R00    
	00F03162: A5F4            LOAD    (R15),R20       
	00F03164: 7C00            CMPQ    $0,R00          
	00F03166: D118            JUMP    n,(R08)         
	00F03168: 7C14            CMPQ    $0,R20          
	00F0316A: D102            JUMP    z,(R08)         
	00F0316C: B021            LOAD    (R15+$4),R01    
	00F0316E: E400            NOP                     
	00F03170: 1821            SUBQ    $1,R01          
	00F03172: D114            JUMP    nn,(R08)        
	00F03174: C821            STORE   R01,(R15+$4)    
	00F03176: 9805 0094 0000  MOVEI   #$94,R05        
	00F0317C: B041            LOAD    (R15+$8),R01    
	00F0317E: 9807 3186 00F0  MOVEI   #$F03186,R07    
	00F03184: C821            STORE   R01,(R15+$4)    
	00F03186: A680            LOAD    (R20),R00       
	00F03188: 8801            MOVE    R00,R01         
	00F0318A: 8802            MOVE    R00,R02         
	00F0318C: 6301            SHLQ    $8,R01          
	00F0318E: 6202            SHLQ    $10,R02         
	00F03190: 6700            SHRQ    $18,R00         
	00F03192: 6701            SHRQ    $18,R01         
	00F03194: 89C3            MOVE    R14,R03         
	00F03196: 6E02            SHARQ   $10,R02         
	00F03198: 0023            ADD     R01,R03         
	00F0319A: 89C4            MOVE    R14,R04         
	00F0319C: 0894            ADDQ    $4,R20          
	00F0319E: 0044            ADD     R02,R04         
	00F031A0: 34E0            BTST    $7,R00          
	00F031A2: D442            JR      z,$F031A8       
	00F031A4: E400            NOP                     
	00F031A6: A482            LOAD    (R04),R02       
	00F031A8: 3440            BTST    $2,R00          
	00F031AA: D482            JR      z,$F031B4       
	00F031AC: E400            NOP                     
	00F031AE: A682            LOAD    (R20),R02       
	00F031B0: E400            NOP                     
	00F031B2: 0894            ADDQ    $4,R20          
	00F031B4: 34A0            BTST    $5,R00          
	00F031B6: D442            JR      z,$F031BC       
	00F031B8: E400            NOP                     
	00F031BA: A442            LOAD    (R02),R02       
	00F031BC: 34C0            BTST    $6,R00          
	00F031BE: D122            JUMP    z,(R09)         
	00F031C0: E400            NOP                     
	00F031C2: A681            LOAD    (R20),R01       
	00F031C4: 3480            BTST    $4,R00          
	00F031C6: D482            JR      z,$F031D0       
	00F031C8: 0894            ADDQ    $4,R20          
	00F031CA: 01C1            ADD     R14,R01         
	00F031CC: E400            NOP                     
	00F031CE: A421            LOAD    (R01),R01       
	00F031D0: 9804 31E4 00F0  MOVEI   #$F031E4,R04    
	00F031D6: A683            LOAD    (R20),R03       
	00F031D8: E400            NOP                     
	00F031DA: 0894            ADDQ    $4,R20          
	00F031DC: BC83            STORE   R03,(R04)       
	00F031DE: E400            NOP                     
	00F031E0: E400            NOP                     
	00F031E2: 7822            CMP     R01,R02         
	00F031E4: D481            JR      nz,$F031EE      
	00F031E6: E400            NOP                     
	00F031E8: A694            LOAD    (R20),R20       
	00F031EA: D0E0            JUMP    (R07)           
	00F031EC: E400            NOP                     
	00F031EE: 0894            ADDQ    $4,R20          
	00F031F0: D0E0            JUMP    (R07)           
	00F031F2: E400            NOP                     
	00F031F4: 3480            BTST    $4,R00          
	00F031F6: D462            JR      z,$F031FE       
	00F031F8: E400            NOP                     
	00F031FA: A683            LOAD    (R20),R03       
	00F031FC: 0894            ADDQ    $4,R20          
	00F031FE: A464            LOAD    (R03),R04       
	00F03200: 3460            BTST    $3,R00          
	00F03202: D4E2            JR      z,$F03212       
	00F03204: E400            NOP                     
	00F03206: 1824            SUBQ    $1,R04          
	00F03208: D498            JR      n,$F03212       
	00F0320A: BC64            STORE   R04,(R03)       
	00F0320C: 1054            SUB     R02,R20         
	00F0320E: D0E0            JUMP    (R07)           
	00F03210: E400            NOP                     
	00F03212: 3420            BTST    $1,R00          
	00F03214: D442            JR      z,$F0321A       
	00F03216: E400            NOP                     
	00F03218: 0082            ADD     R04,R02         
	00F0321A: 7825            CMP     R01,R05         
	00F0321C: D441            JR      nz,$F03222      
	00F0321E: E400            NOP                     
	00F03220: 8854            MOVE    R02,R20         
	00F03222: BC62            STORE   R02,(R03)       
	00F03224: BDF4            STORE   R20,(R15)       
	00F03226: 3400            BTST    $0,R00          
	00F03228: D0E2            JUMP    z,(R07)         
	00F0322A: E400            NOP                     
	00F0322C: AC20            LOAD    (R14+$4),R00    
	00F0322E: AE41            LOAD    (R14+$48),R01   
	00F03230: 7C00            CMPQ    $0,R00          
	00F03232: D3F8            JUMP    n,(R31)         
	00F03234: 7FC1            CMPQ    -$2,R01         
	00F03236: D4C2            JR      z,$F03244       
	00F03238: 1821            SUBQ    $1,R01          
	00F0323A: D481            JR      nz,$F03244      
	00F0323C: C641            STORE   R01,(R14+$48)   
	00F0323E: D3C0            JUMP    (R30)           
	00F03240: E400            NOP                     
	00F03242: E400            NOP                     
	00F03244: AE60            LOAD    (R14+$4C),R00   
	00F03246: 7C00            CMPQ    $0,R00          
	00F03248: D3B8            JUMP    n,(R29)         
	00F0324A: ACCA            LOAD    (R14+$18),R10   
	00F0324C: 9801 4950 464C  MOVEI   #$464C4950,R01  
	00F03252: 980B 4421 454E  MOVEI   #$454E4421,R11  
	00F03258: 980D 524D 5445  MOVEI   #$5445524D,R13  
	00F0325E: 980C 3264 00F0  MOVEI   #$F03264,R12    
	00F03264: A408            LOAD    (R00),R08       
	00F03266: 0880            ADDQ    $4,R00          
	00F03268: A409            LOAD    (R00),R09       
	00F0326A: 0880            ADDQ    $4,R00          
	00F0326C: 7968            CMP     R11,R08         
	00F0326E: D481            JR      nz,$F03278      
	00F03270: E400            NOP                     
	00F03272: D180            JUMP    (R12)           
	00F03274: AF60            LOAD    (R14+$6C),R00   
	00F03276: E400            NOP                     
	00F03278: C660            STORE   R00,(R14+$4C)   
	00F0327A: 79A8            CMP     R13,R08         
	00F0327C: D3C2            JUMP    z,(R30)         
	00F0327E: E400            NOP                     
	00F03280: 7828            CMP     R01,R08         
	00F03282: D5C1            JR      nz,$F032A0      
	00F03284: E400            NOP                     
	00F03286: E400            NOP                     
	00F03288: D180            JUMP    (R12)           
	00F0328A: 200A            NEG     R10             
	00F0328C: E400            NOP                     
	00F0328E: ACCA            LOAD    (R14+$18),R10   
	00F03290: AC80            LOAD    (R14+$10),R00   
	00F03292: ACA1            LOAD    (R14+$14),R01   
	00F03294: AC48            LOAD    (R14+$8),R08    
	00F03296: AC69            LOAD    (R14+$C),R09    
	00F03298: 0008            ADD     R00,R08         
	00F0329A: 0029            ADD     R01,R09         
	00F0329C: C448            STORE   R08,(R14+$8)    
	00F0329E: C469            STORE   R09,(R14+$C)    
	00F032A0: C4CA            STORE   R10,(R14+$18)   
	00F032A2: AE2B            LOAD    (R14+$44),R11   
	00F032A4: ACEC            LOAD    (R14+$1C),R12   
	00F032A6: AD0D            LOAD    (R14+$20),R13   
	00F032A8: 9800 0000 FFFF  MOVEI   #$FFFF0000,R00  
	00F032AE: 9810 0160 0000  MOVEI   #$160,R16       
	00F032B4: 8902            MOVE    R08,R02         
	00F032B6: 8923            MOVE    R09,R03         
	00F032B8: 6E02            SHARQ   $10,R02         
	00F032BA: 6E03            SHARQ   $10,R03         
	00F032BC: 8844            MOVE    R02,R04         
	00F032BE: 8865            MOVE    R03,R05         
	00F032C0: 200D            NEG     R13             
	00F032C2: 0190            ADD     R12,R16         
	00F032C4: 9801 3332 00F0  MOVEI   #$F03332,R01    
	00F032CA: 7C0B            CMPQ    $0,R11          
	00F032CC: D022            JUMP    z,(R01)         
	00F032CE: 35E2            BTST    $F,R02          
	00F032D0: D462            JR      z,$F032D8       
	00F032D2: E400            NOP                     
	00F032D4: E400            NOP                     
	00F032D6: 2802            OR      R00,R02         
	00F032D8: 8846            MOVE    R02,R06         
	00F032DA: 0186            ADD     R12,R06         
	00F032DC: 7C06            CMPQ    $0,R06          
	00F032DE: D4F4            JR      nn,$F032EE      
	00F032E0: 7C0B            CMPQ    $0,R11          
	00F032E2: D3D8            JUMP    n,(R30)         
	00F032E4: E400            NOP                     
	00F032E6: E400            NOP                     
	00F032E8: D380            JUMP    (R28)           
	00F032EA: 0204            ADD     R16,R04         
	00F032EC: E400            NOP                     
	00F032EE: 0182            ADD     R12,R02         
	00F032F0: 1202            SUB     R16,R02         
	00F032F2: D538            JR      n,$F03306       
	00F032F4: D502            JR      z,$F03306       
	00F032F6: 1182            SUB     R12,R02         
	00F032F8: 7C0B            CMPQ    $0,R11          
	00F032FA: D3D8            JUMP    n,(R30)         
	00F032FC: E400            NOP                     
	00F032FE: 8C04            MOVEQ   0,R04           
	00F03300: D380            JUMP    (R28)           
	00F03302: 1184            SUB     R12,R04         
	00F03304: E400            NOP                     
	00F03306: 35E3            BTST    $F,R03          
	00F03308: D462            JR      z,$F03310       
	00F0330A: E400            NOP                     
	00F0330C: E400            NOP                     
	00F0330E: 2803            OR      R00,R03         
	00F03310: 8866            MOVE    R03,R06         
	00F03312: 11A6            SUB     R13,R06         
	00F03314: 7C06            CMPQ    $0,R06          
	00F03316: D4F4            JR      nn,$F03326      
	00F03318: 7C0B            CMPQ    $0,R11          
	00F0331A: D3D8            JUMP    n,(R30)         
	00F0331C: 0225            ADD     R17,R05         
	00F0331E: 11A5            SUB     R13,R05         
	00F03320: D380            JUMP    (R28)           
	00F03322: E400            NOP                     
	00F03324: E400            NOP                     
	00F03326: 1223            SUB     R17,R03         
	00F03328: D498            JR      n,$F03332       
	00F0332A: 7C0B            CMPQ    $0,R11          
	00F0332C: D3D8            JUMP    n,(R30)         
	00F0332E: 1225            SUB     R17,R05         
	00F03330: 01A5            ADD     R13,R05         
	00F03332: ADA0            LOAD    (R14+$34),R00   
	00F03334: AE01            LOAD    (R14+$40),R01   
	00F03336: ADC2            LOAD    (R14+$38),R02   
	00F03338: ADE3            LOAD    (R14+$3C),R03   
	00F0333A: AF26            LOAD    (R14+$64),R06   
	00F0333C: 1820            SUBQ    $1,R00          
	00F0333E: D374            JUMP    nn,(R27)        
	00F03340: C5A0            STORE   R00,(R14+$34)   
	00F03342: C5A6            STORE   R06,(R14+$34)   
	00F03344: 1822            SUBQ    $1,R02          
	00F03346: D374            JUMP    nn,(R27)        
	00F03348: E400            NOP                     
	00F0334A: E400            NOP                     
	00F0334C: 8862            MOVE    R03,R02         
	00F0334E: 7C21            CMPQ    $1,R01          
	00F03350: D3C2            JUMP    z,(R30)         
	00F03352: E400            NOP                     
	00F03354: E400            NOP                     
	00F03356: C5C2            STORE   R02,(R14+$38)   
	00F03358: D540            JR      $F0336E         
	00F0335A: E400            NOP                     
	00F0335C: 8C20            MOVEQ   1,R00           
	00F0335E: 2000            NEG     R00             
	00F03360: C420            STORE   R00,(R14+$4)    
	00F03362: AD04            LOAD    (R14+$20),R04   
	00F03364: AD85            LOAD    (R14+$30),R05   
	00F03366: 888C            MOVE    R04,R12         
	00F03368: 88AD            MOVE    R05,R13         
	00F0336A: 200C            NEG     R12             
	00F0336C: 200D            NEG     R13             
	00F0336E: 89C7            MOVE    R14,R07         
	00F03370: 0907            ADDQ    $8,R07          
	00F03372: B8E4            STOREW  R04,(R07)       
	00F03374: 0887            ADDQ    $4,R07          
	00F03376: B8E5            STOREW  R05,(R07)       
	00F03378: A5CF            LOAD    (R14),R15       
	00F0337A: AD80            LOAD    (R14+$30),R00   
	00F0337C: AD61            LOAD    (R14+$2C),R01   
	00F0337E: 4002            MULT    R00,R02         
	00F03380: B054            LOAD    (R15+$8),R20    
	00F03382: AF07            LOAD    (R14+$60),R07   
	00F03384: 0041            ADD     R02,R01         
	00F03386: 7C2A            CMPQ    $1,R10          
	00F03388: D4A2            JR      z,$F03394       
	00F0338A: 3DB4            BCLR    $D,R20          
	00F0338C: E400            NOP                     
	00F0338E: E400            NOP                     
	00F03390: 39B4            BSET    $D,R20          
	00F03392: 0184            ADD     R12,R04         
	00F03394: 7FE7            CMPQ    -$1,R07         
	00F03396: D462            JR      z,$F0339E       
	00F03398: 62E7            SHLQ    $9,R07          
	00F0339A: 26B4            AND     R21,R20         
	00F0339C: 28F4            OR      R07,R20         
	00F0339E: 9802 00A8 0000  MOVEI   #$A8,R02        
	00F033A4: 89D3            MOVE    R14,R19         
	00F033A6: 0053            ADD     R02,R19         
	00F033A8: A667            LOAD    (R19),R07       
	00F033AA: 1893            SUBQ    $4,R19          
	00F033AC: A662            LOAD    (R19),R02       
	00F033AE: 1893            SUBQ    $4,R19          
	00F033B0: A673            LOAD    (R19),R19       
	00F033B2: 7C27            CMPQ    $1,R07          
	00F033B4: D441            JR      nz,$F033BA      
	00F033B6: 3DF4            BCLR    $F,R20          
	00F033B8: 39F4            BSET    $F,R20          
	00F033BA: 7C22            CMPQ    $1,R02          
	00F033BC: D442            JR      z,$F033C2       
	00F033BE: 3DD4            BCLR    $E,R20          
	00F033C0: 39D4            BSET    $E,R20          
	00F033C2: 9273            MOVETA  R19,R19         
	00F033C4: C854            STORE   R20,(R15+$8)    
	00F033C6: 9813 35E8 00F0  MOVEI   #$F035E8,R19    
	00F033CC: 9802 35E0 00F0  MOVEI   #$F035E0,R02    
	00F033D2: 9807 07FF 0000  MOVEI   #$7FF,R07       
	00F033D8: A442            LOAD    (R02),R02       
	00F033DA: A663            LOAD    (R19),R03       
	00F033DC: 7C02            CMPQ    $0,R02          
	00F033DE: D441            JR      nz,$F033E4      
	00F033E0: E400            NOP                     
	00F033E2: 0903            ADDQ    $8,R03          
	00F033E4: BE6F            STORE   R15,(R19)       
	00F033E6: 0843            ADDQ    $2,R03          
	00F033E8: A062            LOADW   (R03),R02       
	00F033EA: 0843            ADDQ    $2,R03          
	00F033EC: A072            LOADW   (R03),R18       
	00F033EE: 6202            SHLQ    $10,R02         
	00F033F0: 2A42            OR      R18,R02         
	00F033F2: 9813 4000 0000  MOVEI   #$4000,R19      
	00F033F8: 9812 00FF F800  MOVEI   #$F80000FF,R18  
	00F033FE: 89E0            MOVE    R15,R00         
	00F03400: 1260            SUB     R19,R00         
	00F03402: 6C60            SHARQ   $3,R00          
	00F03404: 6300            SHLQ    $8,R00          
	00F03406: 2642            AND     R18,R02         
	00F03408: 9812 35EC 00F0  MOVEI   #$F035EC,R18    
	00F0340E: 2802            OR      R00,R02         
	00F03410: B862            STOREW  R02,(R03)       
	00F03412: 1843            SUBQ    $2,R03          
	00F03414: 6E02            SHARQ   $10,R02         
	00F03416: B862            STOREW  R02,(R03)       
	00F03418: A642            LOAD    (R18),R02       
	00F0341A: 0822            ADDQ    $1,R02          
	00F0341C: BE42            STORE   R02,(R18)       
	00F0341E: 9800 0001 0000  MOVEI   #$1,R00         
	00F03424: 200D            NEG     R13             
	00F03426: 35E5            BTST    $F,R05          
	00F03428: D562            JR      z,$F03440       
	00F0342A: E400            NOP                     
	00F0342C: 080E            ADDQ    $20,R14         
	00F0342E: AF80            LOAD    (R14+$70),R00   
	00F03430: 180E            SUBQ    $20,R14         
	00F03432: 88B3            MOVE    R05,R19         
	00F03434: 2013            NEG     R19             
	00F03436: 4260            MULT    R19,R00         
	00F03438: 8C05            MOVEQ   0,R05           
	00F0343A: 126D            SUB     R19,R13         
	00F0343C: 26CD            AND     R22,R13         
	00F0343E: 0001            ADD     R00,R01         
	00F03440: 9803 00C0 0000  MOVEI   #$C0,R03        
	00F03446: 088F            ADDQ    $4,R15          
	00F03448: A5F2            LOAD    (R15),R18       
	00F0344A: 26F2            AND     R23,R18         
	00F0344C: 624D            SHLQ    $E,R13          
	00F0344E: 29B2            OR      R13,R18         
	00F03450: BDF2            STORE   R18,(R15)       
	00F03452: 2704            AND     R24,R04         
	00F03454: 26C5            AND     R22,R05         
	00F03456: 9420            MOVEFA  R01,R00         
	00F03458: 0005            ADD     R00,R05         
	00F0345A: 188F            SUBQ    $4,R15          
	00F0345C: A5E0            LOAD    (R15),R00       
	00F0345E: 24E0            AND     R07,R00         
	00F03460: 6301            SHLQ    $8,R01          
	00F03462: 2820            OR      R01,R00         
	00F03464: BDE0            STORE   R00,(R15)       
	00F03466: 088F            ADDQ    $4,R15          
	00F03468: A5E0            LOAD    (R15),R00       
	00F0346A: AEA1            LOAD    (R14+$54),R01   
	00F0346C: 2740            AND     R26,R00         
	00F0346E: 00A5            ADD     R05,R05         
	00F03470: 63A5            SHLQ    $3,R05          
	00F03472: 28A0            OR      R05,R00         
	00F03474: 29A0            OR      R13,R00         
	00F03476: 7C01            CMPQ    $0,R01          
	00F03478: D458            JR      n,$F0347E       
	00F0347A: 3C00            BCLR    $0,R00          
	00F0347C: 3800            BSET    $0,R00          
	00F0347E: BDE0            STORE   R00,(R15)       
	00F03480: 9665            MOVEFA  R19,R05         
	00F03482: 6C25            SHARQ   $1,R05          
	00F03484: D5C2            JR      z,$F034A2       
	00F03486: 8C02            MOVEQ   0,R02           
	00F03488: 7C25            CMPQ    $1,R05          
	00F0348A: D562            JR      z,$F034A2       
	00F0348C: 8C22            MOVEQ   1,R02           
	00F0348E: 7C45            CMPQ    $2,R05          
	00F03490: D502            JR      z,$F034A2       
	00F03492: 8C42            MOVEQ   2,R02           
	00F03494: 7C85            CMPQ    $4,R05          
	00F03496: D4A2            JR      z,$F034A2       
	00F03498: 8C62            MOVEQ   3,R02           
	00F0349A: 7D05            CMPQ    $8,R05          
	00F0349C: D442            JR      z,$F034A2       
	00F0349E: 8C82            MOVEQ   4,R02           
	00F034A0: 8CA2            MOVEQ   5,R02           
	00F034A2: 6282            SHLQ    $C,R02          
	00F034A4: 2844            OR      R02,R04         
	00F034A6: 094F            ADDQ    $A,R15          
	00F034A8: A1E0            LOADW   (R15),R00       
	00F034AA: 2720            AND     R25,R00         
	00F034AC: 2880            OR      R04,R00         
	00F034AE: B9E0            STOREW  R00,(R15)       
	00F034B0: 7C21            CMPQ    $1,R01          
	00F034B2: D4E1            JR      nz,$F034C2      
	00F034B4: AEC0            LOAD    (R14+$58),R00   
	00F034B6: AEE1            LOAD    (R14+$5C),R01   
	00F034B8: 08CF            ADDQ    $6,R15          
	00F034BA: 6301            SHLQ    $8,R01          
	00F034BC: 2820            OR      R01,R00         
	00F034BE: BDE0            STORE   R00,(R15)       
	00F034C0: 18CF            SUBQ    $6,R15          
	00F034C2: 184F            SUBQ    $2,R15          
	00F034C4: A1E0            LOADW   (R15),R00       
	00F034C6: 184F            SUBQ    $2,R15          
	00F034C8: A1E1            LOADW   (R15),R01       
	00F034CA: 6201            SHLQ    $10,R01         
	00F034CC: 2820            OR      R01,R00         
	00F034CE: 9801 0003 FFC0  MOVEI   #$FFC00003,R01  
	00F034D4: AF44            LOAD    (R14+$68),R04   
	00F034D6: 2420            AND     R01,R00         
	00F034D8: 3C04            BCLR    $0,R04          
	00F034DA: 3C24            BCLR    $1,R04          
	00F034DC: 62E4            SHLQ    $9,R04          
	00F034DE: 2880            OR      R04,R00         
	00F034E0: 080E            ADDQ    $20,R14         
	00F034E2: AF84            LOAD    (R14+$70),R04   
	00F034E4: 3C04            BCLR    $0,R04          
	00F034E6: 3C24            BCLR    $1,R04          
	00F034E8: 6424            SHRQ    $1,R04          
	00F034EA: 2880            OR      R04,R00         
	00F034EC: 7600            RORQ    $10,R00         
	00F034EE: B9E0            STOREW  R00,(R15)       
	00F034F0: 084F            ADDQ    $2,R15          
	00F034F2: 7600            RORQ    $10,R00         
	00F034F4: B9E0            STOREW  R00,(R15)       
	00F034F6: 180E            SUBQ    $20,R14         
	00F034F8: 8C25            MOVEQ   1,R05           
	00F034FA: 980F 35E0 00F0  MOVEI   #$F035E0,R15    
	00F03500: 7FA1            CMPQ    -$3,R01         
	00F03502: D5E2            JR      z,$F03522       
	00F03504: E400            NOP                     
	00F03506: 9802 314A 00F0  MOVEI   #$F0314A,R02    
	00F0350C: BDE5            STORE   R05,(R15)       
	00F0350E: 9401            MOVEFA  R00,R01         
	00F03510: 006E            ADD     R03,R14         
	00F03512: 1821            SUBQ    $1,R01          
	00F03514: D054            JUMP    nn,(R02)        
	00F03516: 9020            MOVETA  R01,R00         
	00F03518: 8C00            MOVEQ   0,R00           
	00F0351A: 9801 2114 00F0  MOVEI   #$F02114,R01    
	00F03520: BC20            STORE   R00,(R01)       
	00F03522: 9813 35E8 00F0  MOVEI   #$F035E8,R19    
	00F03528: 9802 35E0 00F0  MOVEI   #$F035E0,R02    
	00F0352E: 9804 00C0 0000  MOVEI   #$C0,R04        
	00F03534: 9805 314A 00F0  MOVEI   #$F0314A,R05    
	00F0353A: A442            LOAD    (R02),R02       
	00F0353C: A5CF            LOAD    (R14),R15       
	00F0353E: A663            LOAD    (R19),R03       
	00F03540: 7C02            CMPQ    $0,R02          
	00F03542: D441            JR      nz,$F03548      
	00F03544: E400            NOP                     
	00F03546: 0903            ADDQ    $8,R03          
	00F03548: BE6F            STORE   R15,(R19)       
	00F0354A: 0843            ADDQ    $2,R03          
	00F0354C: A062            LOADW   (R03),R02       
	00F0354E: 0843            ADDQ    $2,R03          
	00F03550: A072            LOADW   (R03),R18       
	00F03552: 6202            SHLQ    $10,R02         
	00F03554: 2A42            OR      R18,R02         
	00F03556: 9813 4000 0000  MOVEI   #$4000,R19      
	00F0355C: 9812 00FF F800  MOVEI   #$F80000FF,R18  
	00F03562: 89E0            MOVE    R15,R00         
	00F03564: 1260            SUB     R19,R00         
	00F03566: 6C60            SHARQ   $3,R00          
	00F03568: 6300            SHLQ    $8,R00          
	00F0356A: 2642            AND     R18,R02         
	00F0356C: 2802            OR      R00,R02         
	00F0356E: B862            STOREW  R02,(R03)       
	00F03570: 1843            SUBQ    $2,R03          
	00F03572: 6E02            SHARQ   $10,R02         
	00F03574: B862            STOREW  R02,(R03)       
	00F03576: 980F 35E0 00F0  MOVEI   #$F035E0,R15    
	00F0357C: 8C12            MOVEQ   0,R18           
	00F0357E: BDF2            STORE   R18,(R15)       
	00F03580: AC62            LOAD    (R14+$C),R02    
	00F03582: A5CF            LOAD    (R14),R15       
	00F03584: 9801 C007 FFFF  MOVEI   #$FFFFC007,R01  
	00F0358A: 088F            ADDQ    $4,R15          
	00F0358C: A5E3            LOAD    (R15),R03       
	00F0358E: 0042            ADD     R02,R02         
	00F03590: 63A2            SHLQ    $3,R02          
	00F03592: 2423            AND     R01,R03         
	00F03594: 2843            OR      R02,R03         
	00F03596: BDE3            STORE   R03,(R15)       
	00F03598: 188F            SUBQ    $4,R15          
	00F0359A: AC82            LOAD    (R14+$10),R02   
	00F0359C: 89E0            MOVE    R15,R00         
	00F0359E: 1260            SUB     R19,R00         
	00F035A0: 6362            SHLQ    $5,R02          
	00F035A2: 89E3            MOVE    R15,R03         
	00F035A4: 0040            ADD     R02,R00         
	00F035A6: 0843            ADDQ    $2,R03          
	00F035A8: A062            LOADW   (R03),R02       
	00F035AA: 0843            ADDQ    $2,R03          
	00F035AC: A072            LOADW   (R03),R18       
	00F035AE: 6202            SHLQ    $10,R02         
	00F035B0: 2A42            OR      R18,R02         
	00F035B2: 9812 00FF F800  MOVEI   #$F80000FF,R18  
	00F035B8: 6C60            SHARQ   $3,R00          
	00F035BA: 6300            SHLQ    $8,R00          
	00F035BC: 2642            AND     R18,R02         
	00F035BE: 2802            OR      R00,R02         
	00F035C0: B862            STOREW  R02,(R03)       
	00F035C2: 1843            SUBQ    $2,R03          
	00F035C4: 6E02            SHARQ   $10,R02         
	00F035C6: B862            STOREW  R02,(R03)       
	00F035C8: 9400            MOVEFA  R00,R00         
	00F035CA: 008E            ADD     R04,R14         
	00F035CC: 1820            SUBQ    $1,R00          
	00F035CE: D0B4            JUMP    nn,(R05)        
	00F035D0: 9000            MOVETA  R00,R00         
	00F035D2: 8C00            MOVEQ   0,R00           
	00F035D4: 9801 2114 00F0  MOVEI   #$F02114,R01    
	00F035DA: BC20            STORE   R00,(R01)       
	00F035DC: E400            NOP                     
	00F035DE: 0000            ADD     R00,R00         
	00F035E0: 0000            ADD     R00,R00         
	00F035E2: 0001            ADD     R00,R01         
	00F035E4: 0000            ADD     R00,R00         
	00F035E6: 0000            ADD     R00,R00         
	00F035E8: 001F            ADD     R00,R31         
	00F035EA: C2A0            STOREP  R00,(R21)       
	00F035EC: 0000            ADD     R00,R00         
	00F035EE: 0240            ADD     R18,R00         
	00F035F0: 980B 7B00 001A  MOVEI   #$1A7B00,R11    
	00F035F6: 296B            OR      R11,R11         
	00F035F8: A56B            LOAD    (R11),R11       
	00F035FA: D480            JR      $F03604         
	00F035FC: E400            NOP                     
	00F035FE: 980B C26C 0019  MOVEI   #$19C26C,R11    
	00F03604: 9818 377C 00F0  MOVEI   #$F0377C,R24    
	00F0360A: 9803 37C4 00F0  MOVEI   #$F037C4,R03    
	00F03610: 9804 3098 00F0  MOVEI   #$F03098,R04    
	00F03616: 981E FFFF FFFF  MOVEI   #$FFFFFFFF,R30  
	00F0361C: 9318            MOVETA  R24,R24         
	00F0361E: 8BDC            MOVE    R30,R28         
	00F03620: 9800 00C0 0000  MOVEI   #$C0,R00        
	00F03626: 981D 3684 00F0  MOVEI   #$F03684,R29    
	00F0362C: 981F 365A 00F0  MOVEI   #$F0365A,R31    
	00F03632: A486            LOAD    (R04),R06       
	00F03634: 1884            SUBQ    $4,R04          
	00F03636: A487            LOAD    (R04),R07       
	00F03638: 1884            SUBQ    $4,R04          
	00F0363A: A488            LOAD    (R04),R08       
	00F0363C: 1884            SUBQ    $4,R04          
	00F0363E: A489            LOAD    (R04),R09       
	00F03640: 1884            SUBQ    $4,R04          
	00F03642: 9084            MOVETA  R04,R04         
	00F03644: 0826            ADDQ    $1,R06          
	00F03646: 0828            ADDQ    $1,R08          
	00F03648: 88EA            MOVE    R07,R10         
	00F0364A: 892C            MOVE    R09,R12         
	00F0364C: 890D            MOVE    R08,R13         
	00F0364E: 8941            MOVE    R10,R01         
	00F03650: 8982            MOVE    R12,R02         
	00F03652: 7822            CMP     R01,R02         
	00F03654: D3A1            JUMP    nz,(R29)        
	00F03656: E400            NOP                     
	00F03658: E400            NOP                     
	00F0365A: 082C            ADDQ    $1,R12          
	00F0365C: 7988            CMP     R12,R08         
	00F0365E: D6E1            JR      nz,$F0364E      
	00F03660: E400            NOP                     
	00F03662: E400            NOP                     
	00F03664: 082A            ADDQ    $1,R10          
	00F03666: 7946            CMP     R10,R06         
	00F03668: D641            JR      nz,$F0364E      
	00F0366A: 892C            MOVE    R09,R12         
	00F0366C: E400            NOP                     
	00F0366E: 9802 FFFF FFFF  MOVEI   #$FFFFFFFF,R02  
	00F03674: BD62            STORE   R02,(R11)       
	00F03676: 9484            MOVEFA  R04,R04         
	00F03678: 8C00            MOVEQ   0,R00           
	00F0367A: 9801 2114 00F0  MOVEI   #$F02114,R01    
	00F03680: BC9E            STORE   R30,(R04)       
	00F03682: BC20            STORE   R00,(R01)       
	00F03684: 980F 3080 00F0  MOVEI   #$F03080,R15    
	00F0368A: A5EF            LOAD    (R15),R15       
	00F0368C: 4002            MULT    R00,R02         
	00F0368E: 89EE            MOVE    R15,R14         
	00F03690: 004F            ADD     R02,R15         
	00F03692: B036            LOAD    (R15+$4),R22    
	00F03694: B297            LOAD    (R15+$50),R23   
	00F03696: 4001            MULT    R00,R01         
	00F03698: 002E            ADD     R01,R14         
	00F0369A: AC38            LOAD    (R14+$4),R24    
	00F0369C: AE99            LOAD    (R14+$50),R25   
	00F0369E: AC50            LOAD    (R14+$8),R16    
	00F036A0: AC71            LOAD    (R14+$C),R17    
	00F036A2: ACF2            LOAD    (R14+$1C),R18   
	00F036A4: AD13            LOAD    (R14+$20),R19   
	00F036A6: AD54            LOAD    (R14+$28),R20   
	00F036A8: AD35            LOAD    (R14+$24),R21   
	00F036AA: AC07            LOAD    (R14+$80),R07   
	00F036AC: 7C16            CMPQ    $0,R22          
	00F036AE: D3F8            JUMP    n,(R31)         
	00F036B0: 7C17            CMPQ    $0,R23          
	00F036B2: D3F8            JUMP    n,(R31)         
	00F036B4: 7C18            CMPQ    $0,R24          
	00F036B6: D3F8            JUMP    n,(R31)         
	00F036B8: 7C19            CMPQ    $0,R25          
	00F036BA: D3F8            JUMP    n,(R31)         
	00F036BC: B056            LOAD    (R15+$8),R22    
	00F036BE: B077            LOAD    (R15+$C),R23    
	00F036C0: B0F8            LOAD    (R15+$1C),R24   
	00F036C2: B119            LOAD    (R15+$20),R25   
	00F036C4: B13A            LOAD    (R15+$24),R26   
	00F036C6: B15B            LOAD    (R15+$28),R27   
	00F036C8: 6E10            SHARQ   $10,R16         
	00F036CA: 6E11            SHARQ   $10,R17         
	00F036CC: 6E16            SHARQ   $10,R22         
	00F036CE: 6E17            SHARQ   $10,R23         
	00F036D0: 6C32            SHARQ   $1,R18          
	00F036D2: 6C33            SHARQ   $1,R19          
	00F036D4: 6C38            SHARQ   $1,R24          
	00F036D6: 6C39            SHARQ   $1,R25          
	00F036D8: 0250            ADD     R18,R16         
	00F036DA: AFB2            LOAD    (R14+$74),R18   
	00F036DC: 0271            ADD     R19,R17         
	00F036DE: AFD3            LOAD    (R14+$78),R19   
	00F036E0: 0316            ADD     R24,R22         
	00F036E2: B3B8            LOAD    (R15+$74),R24   
	00F036E4: 0337            ADD     R25,R23         
	00F036E6: B3D9            LOAD    (R15+$78),R25   
	00F036E8: 7FE7            CMPQ    -$1,R07         
	00F036EA: D061            JUMP    nz,(R03)        
	00F036EC: E400            NOP                     
	00F036EE: E400            NOP                     
	00F036F0: 0250            ADD     R18,R16         
	00F036F2: 0271            ADD     R19,R17         
	00F036F4: 0316            ADD     R24,R22         
	00F036F6: 0337            ADD     R25,R23         
	00F036F8: 9812 309C 00F0  MOVEI   #$F0309C,R18    
	00F036FE: 1216            SUB     R16,R22         
	00F03700: 1237            SUB     R17,R23         
	00F03702: 5816            ABS     R22             
	00F03704: 5817            ABS     R23             
	00F03706: A652            LOAD    (R18),R18       
	00F03708: 029B            ADD     R20,R27         
	00F0370A: 02BA            ADD     R21,R26         
	00F0370C: 080E            ADDQ    $20,R14         
	00F0370E: 080F            ADDQ    $20,R15         
	00F03710: AF55            LOAD    (R14+$68),R21   
	00F03712: B333            LOAD    (R15+$64),R19   
	00F03714: 180E            SUBQ    $20,R14         
	00F03716: 180F            SUBQ    $20,R15         
	00F03718: 1376            SUB     R27,R22         
	00F0371A: D3F4            JUMP    nn,(R31)        
	00F0371C: 1357            SUB     R26,R23         
	00F0371E: D3F4            JUMP    nn,(R31)        
	00F03720: E400            NOP                     
	00F03722: E400            NOP                     
	00F03724: BD6F            STORE   R15,(R11)       
	00F03726: 0C8B            ADDQT   $4,R11          
	00F03728: BD6E            STORE   R14,(R11)       
	00F0372A: 0C8B            ADDQT   $4,R11          
	00F0372C: 8C3E            MOVEQ   1,R30           
	00F0372E: 7C32            CMPQ    $1,R18          
	00F03730: D4C2            JR      z,$F0373E       
	00F03732: CB9E            STORE   R30,(R15+$70)   
	00F03734: E400            NOP                     
	00F03736: E400            NOP                     
	00F03738: D3E0            JUMP    (R31)           
	00F0373A: E400            NOP                     
	00F0373C: E400            NOP                     
	00F0373E: 9812 377C 00F0  MOVEI   #$F0377C,R18    
	00F03744: 9816 FFFB FFFF  MOVEI   #$FFFFFFFB,R22  
	00F0374A: 12B3            SUB     R21,R19         
	00F0374C: 080F            ADDQ    $20,R15         
	00F0374E: CB33            STORE   R19,(R15+$64)   
	00F03750: CB76            STORE   R22,(R15+$6C)   
	00F03752: 180F            SUBQ    $20,R15         
	00F03754: 7C13            CMPQ    $0,R19          
	00F03756: D258            JUMP    n,(R18)         
	00F03758: E400            NOP                     
	00F0375A: E400            NOP                     
	00F0375C: 9812 37A8 00F0  MOVEI   #$F037A8,R18    
	00F03762: 9816 C007 0000  MOVEI   #$C007,R22      
	00F03768: AFF1            LOAD    (R14+$7C),R17   
	00F0376A: 89CF            MOVE    R14,R15         
	00F0376C: 8BFB            MOVE    R31,R27         
	00F0376E: 7C31            CMPQ    $1,R17          
	00F03770: D242            JUMP    z,(R18)         
	00F03772: E400            NOP                     
	00F03774: E400            NOP                     
	00F03776: D3E0            JUMP    (R31)           
	00F03778: E400            NOP                     
	00F0377A: E400            NOP                     
	00F0377C: 9816 C007 0000  MOVEI   #$C007,R22      
	00F03782: B3F0            LOAD    (R15+$7C),R16   
	00F03784: AFF1            LOAD    (R14+$7C),R17   
	00F03786: 981B 3796 00F0  MOVEI   #$F03796,R27    
	00F0378C: 8C3E            MOVEQ   1,R30           
	00F0378E: CB9E            STORE   R30,(R15+$70)   
	00F03790: 7C30            CMPQ    $1,R16          
	00F03792: D542            JR      z,$F037A8       
	00F03794: E400            NOP                     
	00F03796: 89CF            MOVE    R14,R15         
	00F03798: 8BFB            MOVE    R31,R27         
	00F0379A: 7C31            CMPQ    $1,R17          
	00F0379C: D4A2            JR      z,$F037A8       
	00F0379E: E400            NOP                     
	00F037A0: E400            NOP                     
	00F037A2: D3E0            JUMP    (R31)           
	00F037A4: E400            NOP                     
	00F037A6: E400            NOP                     
	00F037A8: A5F2            LOAD    (R15),R18       
	00F037AA: C83C            STORE   R28,(R15+$4)    
	00F037AC: CA9C            STORE   R28,(R15+$50)   
	00F037AE: 9815 12C0 0000  MOVEI   #$12C0,R21      
	00F037B4: 08D2            ADDQ    $6,R18          
	00F037B6: A253            LOADW   (R18),R19       
	00F037B8: 26D3            AND     R22,R19         
	00F037BA: 2AB3            OR      R21,R19         
	00F037BC: BA53            STOREW  R19,(R18)       
	00F037BE: D360            JUMP    (R27)           
	00F037C0: E400            NOP                     
	00F037C2: E400            NOP                     
	00F037C4: 9000            MOVETA  R00,R00         
	00F037C6: 9021            MOVETA  R01,R01         
	00F037C8: 9042            MOVETA  R02,R02         
	00F037CA: 9063            MOVETA  R03,R03         
	00F037CC: 9812 4421 454E  MOVEI   #$454E4421,R18  
	00F037D2: 981C 37DC 00F0  MOVEI   #$F037DC,R28    
	00F037D8: A4F3            LOAD    (R07),R19       
	00F037DA: 0887            ADDQ    $4,R07          
	00F037DC: 8A18            MOVE    R16,R24         
	00F037DE: 8A39            MOVE    R17,R25         
	00F037E0: 8B54            MOVE    R26,R20         
	00F037E2: 8B75            MOVE    R27,R21         
	00F037E4: A4E0            LOAD    (R07),R00       
	00F037E6: 0887            ADDQ    $4,R07          
	00F037E8: 7A40            CMP     R18,R00         
	00F037EA: D581            JR      nz,$F03804      
	00F037EC: E400            NOP                     
	00F037EE: E400            NOP                     
	00F037F0: 9400            MOVEFA  R00,R00         
	00F037F2: 9421            MOVEFA  R01,R01         
	00F037F4: 9442            MOVEFA  R02,R02         
	00F037F6: 9463            MOVEFA  R03,R03         
	00F037F8: 981C FFFF FFFF  MOVEI   #$FFFFFFFF,R28  
	00F037FE: D3E0            JUMP    (R31)           
	00F03800: E400            NOP                     
	00F03802: E400            NOP                     
	00F03804: A4E1            LOAD    (R07),R01       
	00F03806: 0887            ADDQ    $4,R07          
	00F03808: A4E2            LOAD    (R07),R02       
	00F0380A: 0887            ADDQ    $4,R07          
	00F0380C: A4E3            LOAD    (R07),R03       
	00F0380E: 0887            ADDQ    $4,R07          
	00F03810: 0018            ADD     R00,R24         
	00F03812: 0039            ADD     R01,R25         
	00F03814: 12D8            SUB     R22,R24         
	00F03816: 12F9            SUB     R23,R25         
	00F03818: 5818            ABS     R24             
	00F0381A: 5819            ABS     R25             
	00F0381C: 0054            ADD     R02,R20         
	00F0381E: 0075            ADD     R03,R21         
	00F03820: 1298            SUB     R20,R24         
	00F03822: D5D4            JR      nn,$F03840      
	00F03824: 12B9            SUB     R21,R25         
	00F03826: D594            JR      nn,$F03840      
	00F03828: 9400            MOVEFA  R00,R00         
	00F0382A: BD6F            STORE   R15,(R11)       
	00F0382C: 0C8B            ADDQT   $4,R11          
	00F0382E: BD6E            STORE   R14,(R11)       
	00F03830: 9718            MOVEFA  R24,R24         
	00F03832: 9421            MOVEFA  R01,R01         
	00F03834: 9442            MOVEFA  R02,R02         
	00F03836: 981C FFFF FFFF  MOVEI   #$FFFFFFFF,R28  
	00F0383C: D300            JUMP    (R24)           
	00F0383E: 0C8B            ADDQT   $4,R11          
	00F03840: 9463            MOVEFA  R03,R03         
	00F03842: 1833            SUBQ    $1,R19          
	00F03844: D381            JUMP    nz,(R28)        
	00F03846: E400            NOP                     
	00F03848: E400            NOP                     
	00F0384A: 9400            MOVEFA  R00,R00         
	00F0384C: 9421            MOVEFA  R01,R01         
	00F0384E: 9442            MOVEFA  R02,R02         
	00F03850: 9463            MOVEFA  R03,R03         
	00F03852: 981C FFFF FFFF  MOVEI   #$FFFFFFFF,R28  
	00F03858: D3E0            JUMP    (R31)           
	00F0385A: E400            NOP                     
	00F0385C: E400            NOP                     
	00F0385E: 0000            ADD     R00,R00         
	00F03860: 0000            ADD     R00,R00         
	00F03862: 0000            ADD     R00,R00         
	00F03864: 0000            ADD     R00,R00         
	00F03866: 0000            ADD     R00,R00         
	00F03868: 0000            ADD     R00,R00         
	00F0386A: 0000            ADD     R00,R00         
	00F0386C: 0000            ADD     R00,R00         
	00F0386E: 0000            ADD     R00,R00         
	00F03870: 0000            ADD     R00,R00         
	00F03872: 0000            ADD     R00,R00         
	00F03874: 0000            ADD     R00,R00         
	00F03876: 0000            ADD     R00,R00         
	00F03878: 0000            ADD     R00,R00         
	00F0387A: 0000            ADD     R00,R00         
	00F0387C: 0000            ADD     R00,R00         
	00F0387E: 0000            ADD     R00,R00         
	00F03880: 0000            ADD     R00,R00         
	00F03882: 0000            ADD     R00,R00         
	00F03884: 980C 386C 00F0  MOVEI   #$F0386C,R12    
	00F0388A: 9809 3870 00F0  MOVEI   #$F03870,R09    
	00F03890: 9817 7A9C 001A  MOVEI   #$1A7A9C,R23    
	00F03896: 9811 7AA4 001A  MOVEI   #$1A7AA4,R17    
	00F0389C: 9812 3960 00F0  MOVEI   #$F03960,R18    
	00F038A2: 9813 3864 00F0  MOVEI   #$F03864,R19    
	00F038A8: 9816 7AA0 001A  MOVEI   #$1A7AA0,R22    
	00F038AE: 9818 7A90 001A  MOVEI   #$1A7A90,R24    
	00F038B4: A631            LOAD    (R17),R17       
	00F038B6: A58C            LOAD    (R12),R12       
	00F038B8: A529            LOAD    (R09),R09       
	00F038BA: A6D6            LOAD    (R22),R22       
	00F038BC: A6F7            LOAD    (R23),R23       
	00F038BE: A673            LOAD    (R19),R19       
	00F038C0: A718            LOAD    (R24),R24       
	00F038C2: 9819 00C0 0000  MOVEI   #$C0,R25        
	00F038C8: 981A 001A 0000  MOVEI   #$1A,R26        
	00F038CE: 981B E3CE 0019  MOVEI   #$19E3CE,R27    
	00F038D4: 981C 211C 00F0  MOVEI   #$F0211C,R28    
	00F038DA: 981F F9C0 0019  MOVEI   #$19F9C0,R31    
	00F038E0: 981D 7A80 001A  MOVEI   #$1A7A80,R29    
	00F038E6: 981E 7A84 001A  MOVEI   #$1A7A84,R30    
	00F038EC: 980E 3878 00F0  MOVEI   #$F03878,R14    
	00F038F2: 9808 3874 00F0  MOVEI   #$F03874,R08    
	00F038F8: 980A 3860 00F0  MOVEI   #$F03860,R10    
	00F038FE: A37B            LOADW   (R27),R27       
	00F03900: A3E3            LOADW   (R31),R03       
	00F03902: 089F            ADDQ    $4,R31          
	00F03904: A3E4            LOADW   (R31),R04       
	00F03906: A54F            LOAD    (R10),R15       
	00F03908: A5CE            LOAD    (R14),R14       
	00F0390A: A7BD            LOAD    (R29),R29       
	00F0390C: A7DE            LOAD    (R30),R30       
	00F0390E: A508            LOAD    (R08),R08       
	00F03910: 886A            MOVE    R03,R10         
	00F03912: 262A            AND     R17,R10         
	00F03914: 888B            MOVE    R04,R11         
	00F03916: 262B            AND     R17,R11         
	00F03918: 69C3            SHA     R14,R03         
	00F0391A: 69C4            SHA     R14,R04         
	00F0391C: 8865            MOVE    R03,R05         
	00F0391E: 00A5            ADD     R05,R05         
	00F03920: 8886            MOVE    R04,R06         
	00F03922: 00C6            ADD     R06,R06         
	00F03924: 4306            MULT    R24,R06         
	00F03926: 00C5            ADD     R06,R05         
	00F03928: 00B7            ADD     R05,R23         
	00F0392A: 8965            MOVE    R11,R05         
	00F0392C: 9802 387C 00F0  MOVEI   #$F0387C,R02    
	00F03932: 980E 3868 00F0  MOVEI   #$F03868,R14    
	00F03938: A441            LOAD    (R02),R01       
	00F0393A: 0882            ADDQ    $4,R02          
	00F0393C: 9807 7A8C 001A  MOVEI   #$1A7A8C,R07    
	00F03942: A442            LOAD    (R02),R02       
	00F03944: 1141            SUB     R10,R01         
	00F03946: A4E7            LOAD    (R07),R07       
	00F03948: 1162            SUB     R11,R02         
	00F0394A: 8BC5            MOVE    R30,R05         
	00F0394C: 0045            ADD     R02,R05         
	00F0394E: A5CE            LOAD    (R14),R14       
	00F03950: 1827            SUBQ    $1,R07          
	00F03952: 8E00            MOVEQ   16,R00          
	00F03954: 7C3B            CMPQ    $1,R27          
	00F03956: D442            JR      z,$F0395C       
	00F03958: E400            NOP                     
	00F0395A: 0340            ADD     R26,R00         
	00F0395C: 1825            SUBQ    $1,R05          
	00F0395E: 7602            RORQ    $10,R02         
	00F03960: 9806 7A88 001A  MOVEI   #$1A7A88,R06    
	00F03966: 8823            MOVE    R01,R03         
	00F03968: 7603            RORQ    $10,R03         
	00F0396A: C460            STORE   R00,(R14+$C)    
	00F0396C: A4C6            LOAD    (R06),R06       
	00F0396E: 032E            ADD     R25,R14         
	00F03970: 00A0            ADD     R05,R00         
	00F03972: 8BC5            MOVE    R30,R05         
	00F03974: C460            STORE   R00,(R14+$C)    
	00F03976: 032E            ADD     R25,R14         
	00F03978: A2E4            LOADW   (R23),R04       
	00F0397A: 0857            ADDQ    $2,R23          
	00F0397C: 5D04            SH      R08,R04         
	00F0397E: 5DE4            SH      R15,R04         
	00F03980: 8ACD            MOVE    R22,R13         
	00F03982: 008D            ADD     R04,R13         
	00F03984: C56D            STORE   R13,(R14+$2C)   
	00F03986: C443            STORE   R03,(R14+$8)    
	00F03988: C462            STORE   R02,(R14+$C)    
	00F0398A: 0183            ADD     R12,R03         
	00F0398C: 032E            ADD     R25,R14         
	00F0398E: 1826            SUBQ    $1,R06          
	00F03990: D661            JR      nz,$F03978      
	00F03992: E400            NOP                     
	00F03994: 032E            ADD     R25,R14         
	00F03996: 0122            ADD     R09,R02         
	00F03998: 0277            ADD     R19,R23         
	00F0399A: 1827            SUBQ    $1,R07          
	00F0399C: D241            JUMP    nz,(R18)        
	00F0399E: E400            NOP                     
	00F039A0: 8C00            MOVEQ   0,R00           
	00F039A2: 9801 2114 00F0  MOVEI   #$F02114,R01    
	00F039A8: BC20            STORE   R00,(R01)       
	00F039AA: E400            NOP                     
	00F039AC: 0000            ADD     R00,R00         
	00F039AE: 0000            ADD     R00,R00         
	00F039B0: 981E 30A0 00F0  MOVEI   #$F030A0,R30    
	00F039B6: 980E 7AEC 001A  MOVEI   #$1A7AEC,R14    
	00F039BC: 981F 7A98 001A  MOVEI   #$1A7A98,R31    
	00F039C2: 9804 3A0C 00F0  MOVEI   #$F03A0C,R04    
	00F039C8: A7DE            LOAD    (R30),R30       
	00F039CA: A7FF            LOAD    (R31),R31       
	00F039CC: A5CE            LOAD    (R14),R14       
	00F039CE: 9816 0001 0000  MOVEI   #$1,R22         
	00F039D4: 9817 30A4 00F0  MOVEI   #$F030A4,R23    
	00F039DA: 9806 39F8 00F0  MOVEI   #$F039F8,R06    
	00F039E0: 9807 3A02 00F0  MOVEI   #$F03A02,R07    
	00F039E6: 9801 002C 0000  MOVEI   #$2C,R01        
	00F039EC: A7C8            LOAD    (R30),R08       
	00F039EE: 089E            ADDQ    $4,R30          
	00F039F0: A7C9            LOAD    (R30),R09       
	00F039F2: 089E            ADDQ    $4,R30          
	00F039F4: A7D8            LOAD    (R30),R24       
	00F039F6: 089E            ADDQ    $4,R30          
	00F039F8: A5DB            LOAD    (R14),R27       
	00F039FA: 7C1B            CMPQ    $0,R27          
	00F039FC: D5D8            JR      n,$F03A1A       
	00F039FE: E400            NOP                     
	00F03A00: E400            NOP                     
	00F03A02: 002E            ADD     R01,R14         
	00F03A04: 183F            SUBQ    $1,R31          
	00F03A06: D701            JR      nz,$F039F8      
	00F03A08: E400            NOP                     
	00F03A0A: E400            NOP                     
	00F03A0C: 8C00            MOVEQ   0,R00           
	00F03A0E: 9801 2114 00F0  MOVEI   #$F02114,R01    
	00F03A14: BC20            STORE   R00,(R01)       
	00F03A16: E400            NOP                     
	00F03A18: E400            NOP                     
	00F03A1A: C428            STORE   R08,(R14+$4)    
	00F03A1C: C449            STORE   R09,(R14+$8)    
	00F03A1E: A7D0            LOAD    (R30),R16       
	00F03A20: 089E            ADDQ    $4,R30          
	00F03A22: A7D1            LOAD    (R30),R17       
	00F03A24: 089E            ADDQ    $4,R30          
	00F03A26: A7D2            LOAD    (R30),R18       
	00F03A28: 089E            ADDQ    $4,R30          
	00F03A2A: A7D3            LOAD    (R30),R19       
	00F03A2C: 089E            ADDQ    $4,R30          
	00F03A2E: A7D4            LOAD    (R30),R20       
	00F03A30: 089E            ADDQ    $4,R30          
	00F03A32: A7D5            LOAD    (R30),R21       
	00F03A34: 089E            ADDQ    $4,R30          
	00F03A36: C470            STORE   R16,(R14+$C)    
	00F03A38: C491            STORE   R17,(R14+$10)   
	00F03A3A: C4B2            STORE   R18,(R14+$14)   
	00F03A3C: C4D3            STORE   R19,(R14+$18)   
	00F03A3E: C4F4            STORE   R20,(R14+$1C)   
	00F03A40: C514            STORE   R20,(R14+$20)   
	00F03A42: C535            STORE   R21,(R14+$24)   
	00F03A44: BDD6            STORE   R22,(R14)       
	00F03A46: C557            STORE   R23,(R14+$28)   
	00F03A48: 1838            SUBQ    $1,R24          
	00F03A4A: D0E1            JUMP    nz,(R07)        
	00F03A4C: E400            NOP                     
	00F03A4E: E400            NOP                     
	00F03A50: D080            JUMP    (R04)           
	00F03A52: E400            NOP                     
	00F03A54: E400            NOP                     
	00F03A56: 980E 7AEC 001A  MOVEI   #$1A7AEC,R14    
	00F03A5C: 981F 7A98 001A  MOVEI   #$1A7A98,R31    
	00F03A62: 9801 002C 0000  MOVEI   #$2C,R01        
	00F03A68: A5CE            LOAD    (R14),R14       
	00F03A6A: 8C00            MOVEQ   0,R00           
	00F03A6C: A7FF            LOAD    (R31),R31       
	00F03A6E: A5DD            LOAD    (R14),R29       
	00F03A70: 7C1D            CMPQ    $0,R29          
	00F03A72: D498            JR      n,$F03A7C       
	00F03A74: E400            NOP                     
	00F03A76: E400            NOP                     
	00F03A78: AD5E            LOAD    (R14+$28),R30   
	00F03A7A: B7C0            STOREB  R00,(R30)       
	00F03A7C: 183F            SUBQ    $1,R31          
	00F03A7E: D6E1            JR      nz,$F03A6E      
	00F03A80: 002E            ADD     R01,R14         
	00F03A82: 8C00            MOVEQ   0,R00           
	00F03A84: 9801 2114 00F0  MOVEI   #$F02114,R01    
	00F03A8A: BC20            STORE   R00,(R01)       
	00F03A8C: E400            NOP                     
	00F03A8E: E400            NOP                     
	00F03A90: 9818 3AD4 00F0  MOVEI   #$F03AD4,R24    
	00F03A96: 9819 3B64 00F0  MOVEI   #$F03B64,R25    
	00F03A9C: 9807 FFFF FFFF  MOVEI   #$FFFFFFFF,R07  
	00F03AA2: 9805 7AA8 001A  MOVEI   #$1A7AA8,R05    
	00F03AA8: 9806 7AAC 001A  MOVEI   #$1A7AAC,R06    
	00F03AAE: 981F 7A98 001A  MOVEI   #$1A7A98,R31    
	00F03AB4: 9808 01FF 0000  MOVEI   #$1FF,R08       
	00F03ABA: 980E 7AEC 001A  MOVEI   #$1A7AEC,R14    
	00F03AC0: 980F E8A0 0019  MOVEI   #$19E8A0,R15    
	00F03AC6: A4A5            LOAD    (R05),R05       
	00F03AC8: A4C6            LOAD    (R06),R06       
	00F03ACA: A7FF            LOAD    (R31),R31       
	00F03ACC: A5CE            LOAD    (R14),R14       
	00F03ACE: 9801 002C 0000  MOVEI   #$2C,R01        
	00F03AD4: A5DD            LOAD    (R14),R29       
	00F03AD6: 7C1D            CMPQ    $0,R29          
	00F03AD8: D338            JUMP    n,(R25)         
	00F03ADA: AC9E            LOAD    (R14+$10),R30   
	00F03ADC: 9803 30AC 00F0  MOVEI   #$F030AC,R03    
	00F03AE2: 9804 30B0 00F0  MOVEI   #$F030B0,R04    
	00F03AE8: AC70            LOAD    (R14+$C),R16    
	00F03AEA: 2510            AND     R08,R16         
	00F03AEC: 63B0            SHLQ    $3,R16          
	00F03AEE: A463            LOAD    (R03),R03       
	00F03AF0: A484            LOAD    (R04),R04       
	00F03AF2: EE0A            LOAD    (R15+R16),R10   
	00F03AF4: 0890            ADDQ    $4,R16          
	00F03AF6: EE0B            LOAD    (R15+R16),R11   
	00F03AF8: AC2C            LOAD    (R14+$4),R12    
	00F03AFA: AC4D            LOAD    (R14+$8),R13    
	00F03AFC: AC70            LOAD    (R14+$C),R16    
	00F03AFE: ACBC            LOAD    (R14+$14),R28   
	00F03B00: 006C            ADD     R03,R12         
	00F03B02: 008D            ADD     R04,R13         
	00F03B04: 014C            ADD     R10,R12         
	00F03B06: 016D            ADD     R11,R13         
	00F03B08: 183E            SUBQ    $1,R30          
	00F03B0A: D794            JR      nn,$F03B04      
	00F03B0C: E400            NOP                     
	00F03B0E: 8983            MOVE    R12,R03         
	00F03B10: 89A4            MOVE    R13,R04         
	00F03B12: 6E03            SHARQ   $10,R03         
	00F03B14: 6E04            SHARQ   $10,R04         
	00F03B16: 7C03            CMPQ    $0,R03          
	00F03B18: D518            JR      n,$F03B2A       
	00F03B1A: 7C04            CMPQ    $0,R04          
	00F03B1C: D4D8            JR      n,$F03B2A       
	00F03B1E: 10A3            SUB     R05,R03         
	00F03B20: D494            JR      nn,$F03B2A      
	00F03B22: 10C4            SUB     R06,R04         
	00F03B24: D4D8            JR      n,$F03B32       
	00F03B26: E400            NOP                     
	00F03B28: E400            NOP                     
	00F03B2A: BDC7            STORE   R07,(R14)       
	00F03B2C: D320            JUMP    (R25)           
	00F03B2E: E400            NOP                     
	00F03B30: E400            NOP                     
	00F03B32: C42C            STORE   R12,(R14+$4)    
	00F03B34: C44D            STORE   R13,(R14+$8)    
	00F03B36: 0390            ADD     R28,R16         
	00F03B38: C470            STORE   R16,(R14+$C)    
	00F03B3A: AD2A            LOAD    (R14+$24),R10   
	00F03B3C: AD0B            LOAD    (R14+$20),R11   
	00F03B3E: ACEC            LOAD    (R14+$1C),R12   
	00F03B40: ACCD            LOAD    (R14+$18),R13   
	00F03B42: 182A            SUBQ    $1,R10          
	00F03B44: D454            JR      nn,$F03B4A      
	00F03B46: E400            NOP                     
	00F03B48: BDC7            STORE   R07,(R14)       
	00F03B4A: C52A            STORE   R10,(R14+$24)   
	00F03B4C: 182B            SUBQ    $1,R11          
	00F03B4E: D514            JR      nn,$F03B60      
	00F03B50: E400            NOP                     
	00F03B52: E400            NOP                     
	00F03B54: 898B            MOVE    R12,R11         
	00F03B56: 182D            SUBQ    $1,R13          
	00F03B58: D474            JR      nn,$F03B60      
	00F03B5A: E400            NOP                     
	00F03B5C: D460            JR      $F03B64         
	00F03B5E: E400            NOP                     
	00F03B60: C50B            STORE   R11,(R14+$20)   
	00F03B62: C4CD            STORE   R13,(R14+$18)   
	00F03B64: 183F            SUBQ    $1,R31          
	00F03B66: D301            JUMP    nz,(R24)        
	00F03B68: 002E            ADD     R01,R14         
	00F03B6A: E400            NOP                     
	00F03B6C: 980E 7AEC 001A  MOVEI   #$1A7AEC,R14    
	00F03B72: 9800 7AA8 001A  MOVEI   #$1A7AA8,R00    
	00F03B78: 981F 7A98 001A  MOVEI   #$1A7A98,R31    
	00F03B7E: 9818 3BA0 00F0  MOVEI   #$F03BA0,R24    
	00F03B84: 9819 3BCC 00F0  MOVEI   #$F03BCC,R25    
	00F03B8A: 981E 30A8 00F0  MOVEI   #$F030A8,R30    
	00F03B90: A400            LOAD    (R00),R00       
	00F03B92: A7FF            LOAD    (R31),R31       
	00F03B94: A5CE            LOAD    (R14),R14       
	00F03B96: 9801 002C 0000  MOVEI   #$2C,R01        
	00F03B9C: 6C20            SHARQ   $1,R00          
	00F03B9E: A7DE            LOAD    (R30),R30       
	00F03BA0: A5DD            LOAD    (R14),R29       
	00F03BA2: 7C1D            CMPQ    $0,R29          
	00F03BA4: D338            JUMP    n,(R25)         
	00F03BA6: AC2A            LOAD    (R14+$4),R10    
	00F03BA8: AC4B            LOAD    (R14+$8),R11    
	00F03BAA: ACCC            LOAD    (R14+$18),R12   
	00F03BAC: 6E0A            SHARQ   $10,R10         
	00F03BAE: 6E0B            SHARQ   $10,R11         
	00F03BB0: 340A            BTST    $0,R10          
	00F03BB2: D461            JR      nz,$F03BBA      
	00F03BB4: E400            NOP                     
	00F03BB6: E400            NOP                     
	00F03BB8: 638C            SHLQ    $4,R12          
	00F03BBA: 6C2A            SHARQ   $1,R10          
	00F03BBC: 400B            MULT    R00,R11         
	00F03BBE: 8BDC            MOVE    R30,R28         
	00F03BC0: 015C            ADD     R10,R28         
	00F03BC2: 017C            ADD     R11,R28         
	00F03BC4: 9F9B            LOADB   (R28),R27       
	00F03BC6: C55C            STORE   R28,(R14+$28)   
	00F03BC8: 299B            OR      R12,R27         
	00F03BCA: B79B            STOREB  R27,(R28)       
	00F03BCC: 002E            ADD     R01,R14         
	00F03BCE: 183F            SUBQ    $1,R31          
	00F03BD0: D301            JUMP    nz,(R24)        
	00F03BD2: E400            NOP                     
	00F03BD4: E400            NOP                     
	00F03BD6: 8C00            MOVEQ   0,R00           
	00F03BD8: 9801 2114 00F0  MOVEI   #$F02114,R01    
	00F03BDE: BC20            STORE   R00,(R01)       
	00F03BE0: E400            NOP                     
	00F03BE2: 0000            ADD     R00,R00         
	00F03BE4: 0000            ADD     R00,R00         
	00F03BE6: 0000            ADD     R00,R00         
	00F03BE8: 0000            ADD     R00,R00         
	00F03BEA: 0000            ADD     R00,R00         
	00F03BEC: 981F 3BE8 00F0  MOVEI   #$F03BE8,R31    
	00F03BF2: 9800 2200 00F0  MOVEI   #$F02200,R00    
	00F03BF8: 9801 2204 00F0  MOVEI   #$F02204,R01    
	00F03BFE: 9802 2208 00F0  MOVEI   #$F02208,R02    
	00F03C04: 9803 220C 00F0  MOVEI   #$F0220C,R03    
	00F03C0A: 9804 2210 00F0  MOVEI   #$F02210,R04    
	00F03C10: 9805 2214 00F0  MOVEI   #$F02214,R05    
	00F03C16: 9806 2218 00F0  MOVEI   #$F02218,R06    
	00F03C1C: 9807 221C 00F0  MOVEI   #$F0221C,R07    
	00F03C22: 9808 2220 00F0  MOVEI   #$F02220,R08    
	00F03C28: 9809 2224 00F0  MOVEI   #$F02224,R09    
	00F03C2E: 980A 2228 00F0  MOVEI   #$F02228,R10    
	00F03C34: A7FF            LOAD    (R31),R31       
	00F03C36: 980B 2268 00F0  MOVEI   #$F02268,R11    
	00F03C3C: 980C 2230 00F0  MOVEI   #$F02230,R12    
	00F03C42: 980D 2234 00F0  MOVEI   #$F02234,R13    
	00F03C48: 980E 223C 00F0  MOVEI   #$F0223C,R14    
	00F03C4E: 980F 2238 00F0  MOVEI   #$F02238,R15    
	00F03C54: 8978            MOVE    R11,R24         
	00F03C56: 0C98            ADDQT   $4,R24          
	00F03C58: 981D 3C64 00F0  MOVEI   #$F03C64,R29    
	00F03C5E: 981E 3CDE 00F0  MOVEI   #$F03CDE,R30    
	00F03C64: A7F0            LOAD    (R31),R16       
	00F03C66: 0C9F            ADDQT   $4,R31          
	00F03C68: A7F1            LOAD    (R31),R17       
	00F03C6A: 0C9F            ADDQT   $4,R31          
	00F03C6C: A7F2            LOAD    (R31),R18       
	00F03C6E: 0C9F            ADDQT   $4,R31          
	00F03C70: A7F3            LOAD    (R31),R19       
	00F03C72: 0C9F            ADDQT   $4,R31          
	00F03C74: A7F4            LOAD    (R31),R20       
	00F03C76: 0C9F            ADDQT   $4,R31          
	00F03C78: A7F5            LOAD    (R31),R21       
	00F03C7A: 0C9F            ADDQT   $4,R31          
	00F03C7C: A7F6            LOAD    (R31),R22       
	00F03C7E: 0C9F            ADDQT   $4,R31          
	00F03C80: A7F7            LOAD    (R31),R23       
	00F03C82: 0C9F            ADDQT   $4,R31          
	00F03C84: 7C10            CMPQ    $0,R16          
	00F03C86: D3D8            JUMP    n,(R30)         
	00F03C88: E400            NOP                     
	00F03C8A: E400            NOP                     
	00F03C8C: A5FB            LOAD    (R15),R27       
	00F03C8E: 2B7B            OR      R27,R27         
	00F03C90: 341B            BTST    $0,R27          
	00F03C92: D782            JR      z,$F03C8C       
	00F03C94: E400            NOP                     
	00F03C96: BC10            STORE   R16,(R00)       
	00F03C98: BC31            STORE   R17,(R01)       
	00F03C9A: BC52            STORE   R18,(R02)       
	00F03C9C: BC73            STORE   R19,(R03)       
	00F03C9E: BC94            STORE   R20,(R04)       
	00F03CA0: BCB5            STORE   R21,(R05)       
	00F03CA2: BCD6            STORE   R22,(R06)       
	00F03CA4: BCF7            STORE   R23,(R07)       
	00F03CA6: A7F0            LOAD    (R31),R16       
	00F03CA8: 0C9F            ADDQT   $4,R31          
	00F03CAA: A7F1            LOAD    (R31),R17       
	00F03CAC: 0C9F            ADDQT   $4,R31          
	00F03CAE: A7F2            LOAD    (R31),R18       
	00F03CB0: 0C9F            ADDQT   $4,R31          
	00F03CB2: A7F3            LOAD    (R31),R19       
	00F03CB4: 0C9F            ADDQT   $4,R31          
	00F03CB6: A7F4            LOAD    (R31),R20       
	00F03CB8: 0C9F            ADDQT   $4,R31          
	00F03CBA: A7F5            LOAD    (R31),R21       
	00F03CBC: 0C9F            ADDQT   $4,R31          
	00F03CBE: A7F6            LOAD    (R31),R22       
	00F03CC0: 0C9F            ADDQT   $4,R31          
	00F03CC2: A7F7            LOAD    (R31),R23       
	00F03CC4: 0C9F            ADDQT   $4,R31          
	00F03CC6: BD10            STORE   R16,(R08)       
	00F03CC8: BD31            STORE   R17,(R09)       
	00F03CCA: BD52            STORE   R18,(R10)       
	00F03CCC: BD73            STORE   R19,(R11)       
	00F03CCE: BF13            STORE   R19,(R24)       
	00F03CD0: BD94            STORE   R20,(R12)       
	00F03CD2: BDB5            STORE   R21,(R13)       
	00F03CD4: BDD6            STORE   R22,(R14)       
	00F03CD6: BDF7            STORE   R23,(R15)       
	00F03CD8: D3A0            JUMP    (R29)           
	00F03CDA: E400            NOP                     
	00F03CDC: E400            NOP                     
	00F03CDE: 8C00            MOVEQ   0,R00           
	00F03CE0: 9801 2114 00F0  MOVEI   #$F02114,R01    
	00F03CE6: BC20            STORE   R00,(R01)       
	00F03CE8: E400            NOP                     
	00F03CEA: E400            NOP                     
	00F03CEC: 9808 3EB0 00F0  MOVEI   #$F03EB0,R08    
	00F03CF2: A508            LOAD    (R08),R08       
	00F03CF4: 981E 3EB4 00F0  MOVEI   #$F03EB4,R30    
	00F03CFA: A7C9            LOAD    (R30),R09       
	00F03CFC: 9812 3D58 00F0  MOVEI   #$F03D58,R18    
	00F03D02: 9813 3E90 00F0  MOVEI   #$F03E90,R19    
	00F03D08: 9814 3E78 00F0  MOVEI   #$F03E78,R20    
	00F03D0E: 9815 3E2A 00F0  MOVEI   #$F03E2A,R21    
	00F03D14: 9816 3E10 00F0  MOVEI   #$F03E10,R22    
	00F03D1A: 9817 3EA4 00F0  MOVEI   #$F03EA4,R23    
	00F03D20: 9818 3DDC 00F0  MOVEI   #$F03DDC,R24    
	00F03D26: 9819 3D64 00F0  MOVEI   #$F03D64,R25    
	00F03D2C: 981A 3E44 00F0  MOVEI   #$F03E44,R26    
	00F03D32: 981B 3DF6 00F0  MOVEI   #$F03DF6,R27    
	00F03D38: 981C 3D84 00F0  MOVEI   #$F03D84,R28    
	00F03D3E: 8C3D            MOVEQ   1,R29           
	00F03D40: 613D            SHLQ    $17,R29         
	00F03D42: 9806 FB00 FFFF  MOVEI   #$FFFFFB00,R06  
	00F03D48: 8C07            MOVEQ   0,R07           
	00F03D4A: 88E5            MOVE    R07,R05         
	00F03D4C: 1825            SUBQ    $1,R05          
	00F03D4E: 9800 0000 8000  MOVEI   #$80000000,R00  
	00F03D54: D4E0            JR      $F03D64         
	00F03D56: E400            NOP                     
	00F03D58: 9D1E            LOADB   (R08),R30       
	00F03D5A: 2BDE            OR      R30,R30         
	00F03D5C: 2BDE            OR      R30,R30         
	00F03D5E: B53E            STOREB  R30,(R09)       
	00F03D60: 0C28            ADDQT   $1,R08          
	00F03D62: 0C29            ADDQT   $1,R09          
	00F03D64: 63E0            SHLQ    $1,R00          
	00F03D66: D584            JR      nc,$F03D80      
	00F03D68: E400            NOP                     
	00F03D6A: D241            JUMP    nz,(R18)        
	00F03D6C: E400            NOP                     
	00F03D6E: 9D00            LOADB   (R08),R00       
	00F03D70: 2800            OR      R00,R00         
	00F03D72: 2800            OR      R00,R00         
	00F03D74: 0C28            ADDQT   $1,R08          
	00F03D76: 6100            SHLQ    $18,R00         
	00F03D78: 2BA0            OR      R29,R00         
	00F03D7A: 63E0            SHLQ    $1,R00          
	00F03D7C: D248            JUMP    c,(R18)         
	00F03D7E: E400            NOP                     
	00F03D80: 8C21            MOVEQ   1,R01           
	00F03D82: 8C02            MOVEQ   0,R02           
	00F03D84: 63E0            SHLQ    $1,R00          
	00F03D86: D501            JR      nz,$F03D98      
	00F03D88: E400            NOP                     
	00F03D8A: 9D00            LOADB   (R08),R00       
	00F03D8C: 2800            OR      R00,R00         
	00F03D8E: 2800            OR      R00,R00         
	00F03D90: 0C28            ADDQT   $1,R08          
	00F03D92: 6100            SHLQ    $18,R00         
	00F03D94: 2BA0            OR      R29,R00         
	00F03D96: 63E0            SHLQ    $1,R00          
	00F03D98: E400            NOP                     
	00F03D9A: 0421            ADDC    R01,R01         
	00F03D9C: 63E0            SHLQ    $1,R00          
	00F03D9E: D584            JR      nc,$F03DB8      
	00F03DA0: E400            NOP                     
	00F03DA2: D301            JUMP    nz,(R24)        
	00F03DA4: E400            NOP                     
	00F03DA6: 9D00            LOADB   (R08),R00       
	00F03DA8: 2800            OR      R00,R00         
	00F03DAA: 2800            OR      R00,R00         
	00F03DAC: 0C28            ADDQT   $1,R08          
	00F03DAE: 6100            SHLQ    $18,R00         
	00F03DB0: 2BA0            OR      R29,R00         
	00F03DB2: 63E0            SHLQ    $1,R00          
	00F03DB4: D308            JUMP    c,(R24)         
	00F03DB6: E400            NOP                     
	00F03DB8: 1821            SUBQ    $1,R01          
	00F03DBA: 63E0            SHLQ    $1,R00          
	00F03DBC: D501            JR      nz,$F03DCE      
	00F03DBE: E400            NOP                     
	00F03DC0: 9D00            LOADB   (R08),R00       
	00F03DC2: 2800            OR      R00,R00         
	00F03DC4: 2800            OR      R00,R00         
	00F03DC6: 0C28            ADDQT   $1,R08          
	00F03DC8: 6100            SHLQ    $18,R00         
	00F03DCA: 2BA0            OR      R29,R00         
	00F03DCC: 63E0            SHLQ    $1,R00          
	00F03DCE: E400            NOP                     
	00F03DD0: 0421            ADDC    R01,R01         
	00F03DD2: 35E1            BTST    $F,R01          
	00F03DD4: D382            JUMP    z,(R28)         
	00F03DD6: E400            NOP                     
	00F03DD8: D2E0            JUMP    (R23)           
	00F03DDA: E400            NOP                     
	00F03DDC: 1861            SUBQ    $3,R01          
	00F03DDE: D2C8            JUMP    c,(R22)         
	00F03DE0: E400            NOP                     
	00F03DE2: 9D1E            LOADB   (R08),R30       
	00F03DE4: 2BDE            OR      R30,R30         
	00F03DE6: 2BDE            OR      R30,R30         
	00F03DE8: 6301            SHLQ    $8,R01          
	00F03DEA: 0C28            ADDQT   $1,R08          
	00F03DEC: 2BC1            OR      R30,R01         
	00F03DEE: 3001            NOT     R01             
	00F03DF0: 6C21            SHARQ   $1,R01          
	00F03DF2: D2A4            JUMP    nc,(R21)        
	00F03DF4: E400            NOP                     
	00F03DF6: 63E0            SHLQ    $1,R00          
	00F03DF8: D501            JR      nz,$F03E0A      
	00F03DFA: E400            NOP                     
	00F03DFC: 9D00            LOADB   (R08),R00       
	00F03DFE: 2800            OR      R00,R00         
	00F03E00: 2800            OR      R00,R00         
	00F03E02: 0C28            ADDQT   $1,R08          
	00F03E04: 6100            SHLQ    $18,R00         
	00F03E06: 2BA0            OR      R29,R00         
	00F03E08: 63E0            SHLQ    $1,R00          
	00F03E0A: 0442            ADDC    R02,R02         
	00F03E0C: D280            JUMP    (R20)           
	00F03E0E: E400            NOP                     
	00F03E10: 88A1            MOVE    R05,R01         
	00F03E12: 63E0            SHLQ    $1,R00          
	00F03E14: D501            JR      nz,$F03E26      
	00F03E16: E400            NOP                     
	00F03E18: 9D00            LOADB   (R08),R00       
	00F03E1A: 2800            OR      R00,R00         
	00F03E1C: 2800            OR      R00,R00         
	00F03E1E: 0C28            ADDQT   $1,R08          
	00F03E20: 6100            SHLQ    $18,R00         
	00F03E22: 2BA0            OR      R29,R00         
	00F03E24: 63E0            SHLQ    $1,R00          
	00F03E26: D368            JUMP    c,(R27)         
	00F03E28: E400            NOP                     
	00F03E2A: 0822            ADDQ    $1,R02          
	00F03E2C: 63E0            SHLQ    $1,R00          
	00F03E2E: D501            JR      nz,$F03E40      
	00F03E30: E400            NOP                     
	00F03E32: 9D00            LOADB   (R08),R00       
	00F03E34: 2800            OR      R00,R00         
	00F03E36: 2800            OR      R00,R00         
	00F03E38: 0C28            ADDQT   $1,R08          
	00F03E3A: 6100            SHLQ    $18,R00         
	00F03E3C: 2BA0            OR      R29,R00         
	00F03E3E: 63E0            SHLQ    $1,R00          
	00F03E40: D368            JUMP    c,(R27)         
	00F03E42: E400            NOP                     
	00F03E44: 63E0            SHLQ    $1,R00          
	00F03E46: D501            JR      nz,$F03E58      
	00F03E48: E400            NOP                     
	00F03E4A: 9D00            LOADB   (R08),R00       
	00F03E4C: 2800            OR      R00,R00         
	00F03E4E: 2800            OR      R00,R00         
	00F03E50: 0C28            ADDQT   $1,R08          
	00F03E52: 6100            SHLQ    $18,R00         
	00F03E54: 2BA0            OR      R29,R00         
	00F03E56: 63E0            SHLQ    $1,R00          
	00F03E58: 0442            ADDC    R02,R02         
	00F03E5A: 63E0            SHLQ    $1,R00          
	00F03E5C: D344            JUMP    nc,(R26)        
	00F03E5E: E400            NOP                     
	00F03E60: D541            JR      nz,$F03E76      
	00F03E62: E400            NOP                     
	00F03E64: 9D00            LOADB   (R08),R00       
	00F03E66: 2800            OR      R00,R00         
	00F03E68: 2800            OR      R00,R00         
	00F03E6A: 0C28            ADDQT   $1,R08          
	00F03E6C: 6100            SHLQ    $18,R00         
	00F03E6E: 2BA0            OR      R29,R00         
	00F03E70: 63E0            SHLQ    $1,R00          
	00F03E72: D344            JUMP    nc,(R26)        
	00F03E74: E400            NOP                     
	00F03E76: 0842            ADDQ    $2,R02          
	00F03E78: 8825            MOVE    R01,R05         
	00F03E7A: 892B            MOVE    R09,R11         
	00F03E7C: 002B            ADD     R01,R11         
	00F03E7E: 10C1            SUB     R06,R01         
	00F03E80: E400            NOP                     
	00F03E82: 04E2            ADDC    R07,R02         
	00F03E84: 9D7E            LOADB   (R11),R30       
	00F03E86: 2BDE            OR      R30,R30         
	00F03E88: 2BDE            OR      R30,R30         
	00F03E8A: B53E            STOREB  R30,(R09)       
	00F03E8C: 0C2B            ADDQT   $1,R11          
	00F03E8E: 0C29            ADDQT   $1,R09          
	00F03E90: 9D7E            LOADB   (R11),R30       
	00F03E92: 2BDE            OR      R30,R30         
	00F03E94: 2BDE            OR      R30,R30         
	00F03E96: B53E            STOREB  R30,(R09)       
	00F03E98: 0C2B            ADDQT   $1,R11          
	00F03E9A: 1822            SUBQ    $1,R02          
	00F03E9C: D264            JUMP    nc,(R19)        
	00F03E9E: 0C29            ADDQT   $1,R09          
	00F03EA0: D320            JUMP    (R25)           
	00F03EA2: E400            NOP                     
	00F03EA4: 9801 2114 00F0  MOVEI   #$F02114,R01    
	00F03EAA: 8C00            MOVEQ   0,R00           
	00F03EAC: BC20            STORE   R00,(R01)       
	00F03EAE: E400            NOP                     
	00F03EB0: 0000            ADD     R00,R00         
	00F03EB2: 0000            ADD     R00,R00         
	00F03EB4: 0000            ADD     R00,R00         
	00F03EB6: 0000            ADD     R00,R00         
	00F03EB8: 0000            ADD     R00,R00         
	00F03EBA: 0000            ADD     R00,R00         
	00F03EBC: 0000            ADD     R00,R00         
	00F03EBE: 0000            ADD     R00,R00         
	00F03EC0: 0000            ADD     R00,R00         
	00F03EC2: 0000            ADD     R00,R00         
	00F03EC4: 0000            ADD     R00,R00         
	00F03EC6: 0000            ADD     R00,R00         
	00F03EC8: 9807 7AFC 001A  MOVEI   #$1A7AFC,R07    
	00F03ECE: 981D 3F84 00F0  MOVEI   #$F03F84,R29    
	00F03ED4: 980E 3EB8 00F0  MOVEI   #$F03EB8,R14    
	00F03EDA: 9818 3F78 00F0  MOVEI   #$F03F78,R24    
	00F03EE0: 9817 3F1E 00F0  MOVEI   #$F03F1E,R23    
	00F03EE6: A4E7            LOAD    (R07),R07       
	00F03EE8: A5C0            LOAD    (R14),R00       
	00F03EEA: AC21            LOAD    (R14+$4),R01    
	00F03EEC: AC42            LOAD    (R14+$8),R02    
	00F03EEE: AC63            LOAD    (R14+$C),R03    
	00F03EF0: 8C39            MOVEQ   1,R25           
	00F03EF2: 7802            CMP     R00,R02         
	00F03EF4: D522            JR      z,$F03F08       
	00F03EF6: 7823            CMP     R01,R03         
	00F03EF8: D2E1            JUMP    nz,(R23)        
	00F03EFA: 1002            SUB     R00,R02         
	00F03EFC: D478            JR      n,$F03F04       
	00F03EFE: 8E00            MOVEQ   16,R00          
	00F03F00: D3A0            JUMP    (R29)           
	00F03F02: 8C00            MOVEQ   0,R00           
	00F03F04: D3A0            JUMP    (R29)           
	00F03F06: 6380            SHLQ    $4,R00          
	00F03F08: 1023            SUB     R01,R03         
	00F03F0A: D498            JR      n,$F03F14       
	00F03F0C: 8E00            MOVEQ   16,R00          
	00F03F0E: E400            NOP                     
	00F03F10: D3A0            JUMP    (R29)           
	00F03F12: 63A0            SHLQ    $3,R00          
	00F03F14: 8801            MOVE    R00,R01         
	00F03F16: 6380            SHLQ    $4,R00          
	00F03F18: 63A1            SHLQ    $3,R01          
	00F03F1A: D3A0            JUMP    (R29)           
	00F03F1C: 0020            ADD     R01,R00         
	00F03F1E: D454            JR      nn,$F03F24      
	00F03F20: 8C06            MOVEQ   0,R06           
	00F03F22: 3866            BSET    $3,R06          
	00F03F24: 1023            SUB     R01,R03         
	00F03F26: D454            JR      nn,$F03F2C      
	00F03F28: 5802            ABS     R02             
	00F03F2A: 3846            BSET    $2,R06          
	00F03F2C: 5803            ABS     R03             
	00F03F2E: 8869            MOVE    R03,R09         
	00F03F30: 1049            SUB     R02,R09         
	00F03F32: D4D8            JR      n,$F03F40       
	00F03F34: 8C05            MOVEQ   0,R05           
	00F03F36: D542            JR      z,$F03F4C       
	00F03F38: 6202            SHLQ    $10,R02         
	00F03F3A: 5462            DIV     R03,R02         
	00F03F3C: D540            JR      $F03F52         
	00F03F3E: 2842            OR      R02,R02         
	00F03F40: 6203            SHLQ    $10,R03         
	00F03F42: 5443            DIV     R02,R03         
	00F03F44: 2863            OR      R03,R03         
	00F03F46: 8862            MOVE    R03,R02         
	00F03F48: D480            JR      $F03F52         
	00F03F4A: 8C25            MOVEQ   1,R05           
	00F03F4C: 8E00            MOVEQ   16,R00          
	00F03F4E: D300            JUMP    (R24)           
	00F03F50: 63C0            SHLQ    $2,R00          
	00F03F52: 3466            BTST    $3,R06          
	00F03F54: D442            JR      z,$F03F5A       
	00F03F56: 8C03            MOVEQ   0,R03           
	00F03F58: 2F25            XOR     R25,R05         
	00F03F5A: 3446            BTST    $2,R06          
	00F03F5C: D442            JR      z,$F03F62       
	00F03F5E: 6202            SHLQ    $10,R02         
	00F03F60: 2F25            XOR     R25,R05         
	00F03F62: 6602            SHRQ    $10,R02         
	00F03F64: 0047            ADD     R02,R07         
	00F03F66: 7C05            CMPQ    $0,R05          
	00F03F68: D4C1            JR      nz,$F03F76      
	00F03F6A: 9CE3            LOADB   (R07),R03       
	00F03F6C: 9800 0080 0000  MOVEI   #$80,R00        
	00F03F72: 1060            SUB     R03,R00         
	00F03F74: 8803            MOVE    R00,R03         
	00F03F76: 8860            MOVE    R03,R00         
	00F03F78: 9802 3F90 00F0  MOVEI   #$F03F90,R02    
	00F03F7E: 00C2            ADD     R06,R02         
	00F03F80: A45A            LOAD    (R02),R26       
	00F03F82: 0340            ADD     R26,R00         
	00F03F84: BDC0            STORE   R00,(R14)       
	00F03F86: 8C02            MOVEQ   0,R02           
	00F03F88: 9801 2114 00F0  MOVEI   #$F02114,R01    
	00F03F8E: BC22            STORE   R02,(R01)       
	00F03F90: 0000            ADD     R00,R00         
	00F03F92: 0000            ADD     R00,R00         
	00F03F94: 0000            ADD     R00,R00         
	00F03F96: 0180            ADD     R12,R00         
	00F03F98: 0000            ADD     R00,R00         
	00F03F9A: 0080            ADD     R04,R00         
	00F03F9C: 0000            ADD     R00,R00         
	00F03F9E: 0100            ADD     R08,R00         
	00F03FA0: 0000            ADD     R00,R00         
	00F03FA2: 0000            ADD     R00,R00         
	00F03FA4: 0000            ADD     R00,R00         
	00F03FA6: 0000            ADD     R00,R00         
	00F03FA8: 0000            ADD     R00,R00         
	00F03FAA: 0006            ADD     R00,R06         
	00F03FAC: 0000            ADD     R00,R00         
	00F03FAE: 0001            ADD     R00,R01         
	00F03FB0: 0000            ADD     R00,R00         
	00F03FB2: 0000            ADD     R00,R00         
	00F03FB4: 0000            ADD     R00,R00         
	00F03FB6: 0000            ADD     R00,R00         
	00F03FB8: 0000            ADD     R00,R00         
	00F03FBA: 0000            ADD     R00,R00         
	00F03FBC: 0000            ADD     R00,R00         
	00F03FBE: 0000            ADD     R00,R00         
	00F03FC0: 0000            ADD     R00,R00         
	00F03FC2: 0002            ADD     R00,R02         
	00F03FC4: 0000            ADD     R00,R00         
	00F03FC6: 0001            ADD     R00,R01         
	00F03FC8: 0000            ADD     R00,R00         
	00F03FCA: 0000            ADD     R00,R00         
	00F03FCC: 0000            ADD     R00,R00         
	00F03FCE: 0000            ADD     R00,R00         
	00F03FD0: 0000            ADD     R00,R00         
	00F03FD2: 0032            ADD     R01,R18         
	00F03FD4: 0000            ADD     R00,R00         
	00F03FD6: 0000            ADD     R00,R00         
	00F03FD8: 0000            ADD     R00,R00         
	00F03FDA: 0000            ADD     R00,R00         
	00F03FDC: FFFF            UNPACK  R31             
	00F03FDE: FFFF            UNPACK  R31             
	00F03FE0: 0000            ADD     R00,R00         
	00F03FE2: 0170            ADD     R11,R16         
	00F03FE4: 0000            ADD     R00,R00         
	00F03FE6: 00F0            ADD     R07,R16         
	00F03FE8: 0000            ADD     R00,R00         
	00F03FEA: 0000            ADD     R00,R00         
	00F03FEC: 0000            ADD     R00,R00         
	00F03FEE: 0000            ADD     R00,R00         
	00F03FF0: 001A            ADD     R00,R26         
	00F03FF2: A8E0            LOADP   (R07),R00       
	00F03FF4: 001D            ADD     R00,R29         
	00F03FF6: 1E00            SUBQT   $10,R00         
	00F03FF8: 0000            ADD     R00,R00         
	00F03FFA: 4612            IMULT   R16,R18         
	00F03FFC: 0000            ADD     R00,R00         
	00F03FFE: 4616            IMULT   R16,R22         

GPU opcodes use:
	              add 32256
	             addq 5760
	              sub 2304
	             subq 29852
	              neg 1152
	              and 4752
	               or 6480
	             btst 1728
	             bset 432
	             bclr 4608
	             mult 576
	             shlq 5184
	             shrq 576
	            sharq 3024
	             rorq 1152
	             cmpq 45805
	             move 8221
	            moveq 6048
	           moveta 3600
	           movefa 3888
	            movei 26928
	            loadw 3024
	             load 31824
	 load_r14_indexed 35280
	 load_r15_indexed 1152
	           storew 4032
	            store 6192
	store_r14_indexed 3212
	store_r15_indexed 576
	             jump 39945
	               jr 29664
	              nop 21539

DSP: Stopped at PC=00F1C070 dsp_modulo=FFFFFFFF (dsp was running)
DSP: not in interrupt handler
DSP: pending=$0 enabled=$E (I2S Timer0 Timer1 )

Registers bank 0
	R00=00F1C458 R01=00F1CC50 R02=FFFFFF40 R03=00000056
	R04=00000000 R05=00000000 R06=00000000 R07=00000000
	R08=00000001 R09=00000000 R10=00000000 R11=FFFFFE86
	R12=FFFFFEC5 R13=00000003 R14=00F1BC54 R15=00F1B490
	R16=00000000 R17=00000000 R18=C0000000 R19=00000000
	R20=00000000 R21=00F1BC50 R22=00000001 R23=00F1A148
	R24=00F1A14C R25=00F1C420 R26=00000000 R27=00000000
	R28=00F1C05C R29=000044E0 R30=00F1A100 R31=00F1BC40

Registers bank 1
	R00=C0000000 R01=00000000 R02=00F1B4A4 R03=0000007F
	R04=00011A85 R05=00000000 R06=0000FFFF R07=0000000F
	R08=00F1BC68 R09=00000000 R10=00000000 R11=00000014
	R12=0017ED70 R13=00180908 R14=00F1B5BC R15=00F1BE68
	R16=00000000 R17=00000000 R18=00F1BC14 R19=00000FFF
	R20=00000000 R21=00000000 R22=00F1C24C R23=00000000
	R24=00178F20 R25=00000000 R26=00000000 R27=00000498
	R28=00000000 R29=00000000 R30=00F1C470 R31=00F1BF70

	00F1B000: 9800 BFF8 00F1  MOVEI   #$F1BFF8,R00    
	00F1B006: D000            JUMP    (R00)           
	00F1B008: E400            NOP                     
	00F1B00A: E400            NOP                     
	00F1B00C: 75EB            RORQ    $F,R11          
	00F1B00E: 0018            ADD     R00,R24         
	00F1B010: 9800 C368 00F1  MOVEI   #$F1C368,R00    
	00F1B016: 981E A100 00F1  MOVEI   #$F1A100,R30    
	00F1B01C: D000            JUMP    (R00)           
	00F1B01E: A7DD            LOAD    (R30),R29       
	00F1B020: 9800 C298 00F1  MOVEI   #$F1C298,R00    
	00F1B026: 981E A100 00F1  MOVEI   #$F1A100,R30    
	00F1B02C: D000            JUMP    (R00)           
	00F1B02E: A7DD            LOAD    (R30),R29       
	00F1B030: 9800 C320 00F1  MOVEI   #$F1C320,R00    
	00F1B036: 981E A100 00F1  MOVEI   #$F1A100,R30    
	00F1B03C: D000            JUMP    (R00)           
	00F1B03E: A7DD            LOAD    (R30),R29       
	00F1B040: 00F1            ADD     R07,R17         
	00F1B042: B56C            STOREB  R12,(R11)       
	00F1B044: 0016            ADD     R00,R22         
	00F1B046: C5FC            STORE   R28,(R14+$3C)   
	00F1B048: 0016            ADD     R00,R22         
	00F1B04A: D7BC            JR      ???,$F1B046     
	00F1B04C: 0016            ADD     R00,R22         
	00F1B04E: C5FC            STORE   R28,(R14+$3C)   
	00F1B050: 0000            ADD     R00,R00         
	00F1B052: 0000            ADD     R00,R00         
	00F1B054: 0000            ADD     R00,R00         
	00F1B056: 002D            ADD     R01,R13         
	00F1B058: 0000            ADD     R00,R00         
	00F1B05A: 07C6            ADDC    R30,R06         
	00F1B05C: 0016            ADD     R00,R22         
	00F1B05E: D7BC            JR      ???,$F1B05A     
	00F1B060: 0017            ADD     R00,R23         
	00F1B062: 10D2            SUB     R06,R18         
	00F1B064: 0016            ADD     R00,R22         
	00F1B066: F540            STORE   R00,(R15+R10)   
	00F1B068: 0017            ADD     R00,R23         
	00F1B06A: 10D2            SUB     R06,R18         
	00F1B06C: 0000            ADD     R00,R00         
	00F1B06E: 0040            ADD     R02,R00         
	00F1B070: 0000            ADD     R00,R00         
	00F1B072: 07C6            ADDC    R30,R06         
	00F1B074: 0017            ADD     R00,R23         
	00F1B076: 10D2            SUB     R06,R18         
	00F1B078: 0017            ADD     R00,R23         
	00F1B07A: 36DC            BTST    $16,R28         
	00F1B07C: 0017            ADD     R00,R23         
	00F1B07E: 118A            SUB     R12,R10         
	00F1B080: 0017            ADD     R00,R23         
	00F1B082: 36DC            BTST    $16,R28         
	00F1B084: 0000            ADD     R00,R00         
	00F1B086: 0039            ADD     R01,R25         
	00F1B088: 0000            ADD     R00,R00         
	00F1B08A: 07C6            ADDC    R30,R06         
	00F1B08C: 0017            ADD     R00,R23         
	00F1B08E: 36DC            BTST    $16,R28         
	00F1B090: 0017            ADD     R00,R23         
	00F1B092: 64CE            SHRQ    $6,R14          
	00F1B094: 0017            ADD     R00,R23         
	00F1B096: 36DC            BTST    $16,R28         
	00F1B098: 0000            ADD     R00,R00         
	00F1B09A: 0000            ADD     R00,R00         
	00F1B09C: 0000            ADD     R00,R00         
	00F1B09E: 0040            ADD     R02,R00         
	00F1B0A0: 0000            ADD     R00,R00         
	00F1B0A2: 07C6            ADDC    R30,R06         
	00F1B0A4: 0017            ADD     R00,R23         
	00F1B0A6: 64CE            SHRQ    $6,R14          
	00F1B0A8: 0017            ADD     R00,R23         
	00F1B0AA: 8F20            MOVEQ   25,R00          
	00F1B0AC: 0017            ADD     R00,R23         
	00F1B0AE: 65F4            SHRQ    $F,R20          
	00F1B0B0: 0017            ADD     R00,R23         
	00F1B0B2: 8F20            MOVEQ   25,R00          
	00F1B0B4: 0000            ADD     R00,R00         
	00F1B0B6: 0030            ADD     R01,R16         
	00F1B0B8: 0000            ADD     R00,R00         
	00F1B0BA: 07C6            ADDC    R30,R06         
	00F1B0BC: 0017            ADD     R00,R23         
	00F1B0BE: 8F20            MOVEQ   25,R00          
	00F1B0C0: 0018            ADD     R00,R24         
	00F1B0C2: 0908            ADDQ    $8,R08          
	00F1B0C4: 0017            ADD     R00,R23         
	00F1B0C6: 8F20            MOVEQ   25,R00          
	00F1B0C8: 0000            ADD     R00,R00         
	00F1B0CA: 0000            ADD     R00,R00         
	00F1B0CC: 0000            ADD     R00,R00         
	00F1B0CE: 0040            ADD     R02,R00         
	00F1B0D0: 0000            ADD     R00,R00         
	00F1B0D2: 07C6            ADDC    R30,R06         
	00F1B0D4: 0018            ADD     R00,R24         
	00F1B0D6: 0908            ADDQ    $8,R08          
	00F1B0D8: 0018            ADD     R00,R24         
	00F1B0DA: 0908            ADDQ    $8,R08          
	00F1B0DC: 0018            ADD     R00,R24         
	00F1B0DE: 0908            ADDQ    $8,R08          
	00F1B0E0: 0000            ADD     R00,R00         
	00F1B0E2: 0000            ADD     R00,R00         
	00F1B0E4: 0000            ADD     R00,R00         
	00F1B0E6: 0000            ADD     R00,R00         
	00F1B0E8: 0000            ADD     R00,R00         
	00F1B0EA: 07C6            ADDC    R30,R06         
	00F1B0EC: 0018            ADD     R00,R24         
	00F1B0EE: 0908            ADDQ    $8,R08          
	00F1B0F0: 0018            ADD     R00,R24         
	00F1B0F2: 0908            ADDQ    $8,R08          
	00F1B0F4: 0018            ADD     R00,R24         
	00F1B0F6: 0908            ADDQ    $8,R08          
	00F1B0F8: 0000            ADD     R00,R00         
	00F1B0FA: 0000            ADD     R00,R00         
	00F1B0FC: 0000            ADD     R00,R00         
	00F1B0FE: 0000            ADD     R00,R00         
	00F1B100: 0000            ADD     R00,R00         
	00F1B102: 07C6            ADDC    R30,R06         
	00F1B104: 0018            ADD     R00,R24         
	00F1B106: 0908            ADDQ    $8,R08          
	00F1B108: 0018            ADD     R00,R24         
	00F1B10A: 0908            ADDQ    $8,R08          
	00F1B10C: 0018            ADD     R00,R24         
	00F1B10E: 0908            ADDQ    $8,R08          
	00F1B110: 0000            ADD     R00,R00         
	00F1B112: 0000            ADD     R00,R00         
	00F1B114: 0000            ADD     R00,R00         
	00F1B116: 0000            ADD     R00,R00         
	00F1B118: 0000            ADD     R00,R00         
	00F1B11A: 07C6            ADDC    R30,R06         
	00F1B11C: 0018            ADD     R00,R24         
	00F1B11E: 0908            ADDQ    $8,R08          
	00F1B120: 0018            ADD     R00,R24         
	00F1B122: 0908            ADDQ    $8,R08          
	00F1B124: 0018            ADD     R00,R24         
	00F1B126: 0908            ADDQ    $8,R08          
	00F1B128: 0000            ADD     R00,R00         
	00F1B12A: 0000            ADD     R00,R00         
	00F1B12C: 0000            ADD     R00,R00         
	00F1B12E: 0000            ADD     R00,R00         
	00F1B130: 0000            ADD     R00,R00         
	00F1B132: 07C6            ADDC    R30,R06         
	00F1B134: 0018            ADD     R00,R24         
	00F1B136: 0908            ADDQ    $8,R08          
	00F1B138: 0018            ADD     R00,R24         
	00F1B13A: 0908            ADDQ    $8,R08          
	00F1B13C: 0018            ADD     R00,R24         
	00F1B13E: 0908            ADDQ    $8,R08          
	00F1B140: 0000            ADD     R00,R00         
	00F1B142: 0000            ADD     R00,R00         
	00F1B144: 0000            ADD     R00,R00         
	00F1B146: 0000            ADD     R00,R00         
	00F1B148: 0000            ADD     R00,R00         
	00F1B14A: 07C6            ADDC    R30,R06         
	00F1B14C: 0018            ADD     R00,R24         
	00F1B14E: 0908            ADDQ    $8,R08          
	00F1B150: 0018            ADD     R00,R24         
	00F1B152: 0908            ADDQ    $8,R08          
	00F1B154: 0018            ADD     R00,R24         
	00F1B156: 0908            ADDQ    $8,R08          
	00F1B158: 0000            ADD     R00,R00         
	00F1B15A: 0000            ADD     R00,R00         
	00F1B15C: 0000            ADD     R00,R00         
	00F1B15E: 0000            ADD     R00,R00         
	00F1B160: 0000            ADD     R00,R00         
	00F1B162: 07C6            ADDC    R30,R06         
	00F1B164: 0018            ADD     R00,R24         
	00F1B166: 0908            ADDQ    $8,R08          
	00F1B168: 0018            ADD     R00,R24         
	00F1B16A: 0908            ADDQ    $8,R08          
	00F1B16C: 0018            ADD     R00,R24         
	00F1B16E: 0908            ADDQ    $8,R08          
	00F1B170: 0000            ADD     R00,R00         
	00F1B172: 0000            ADD     R00,R00         
	00F1B174: 0000            ADD     R00,R00         
	00F1B176: 0000            ADD     R00,R00         
	00F1B178: 0000            ADD     R00,R00         
	00F1B17A: 07C6            ADDC    R30,R06         
	00F1B17C: 0018            ADD     R00,R24         
	00F1B17E: 0908            ADDQ    $8,R08          
	00F1B180: 0018            ADD     R00,R24         
	00F1B182: 0908            ADDQ    $8,R08          
	00F1B184: 0018            ADD     R00,R24         
	00F1B186: 0908            ADDQ    $8,R08          
	00F1B188: 0000            ADD     R00,R00         
	00F1B18A: 0000            ADD     R00,R00         
	00F1B18C: 0000            ADD     R00,R00         
	00F1B18E: 0000            ADD     R00,R00         
	00F1B190: 0000            ADD     R00,R00         
	00F1B192: 07C6            ADDC    R30,R06         
	00F1B194: 0018            ADD     R00,R24         
	00F1B196: 0908            ADDQ    $8,R08          
	00F1B198: 0018            ADD     R00,R24         
	00F1B19A: 0908            ADDQ    $8,R08          
	00F1B19C: 0018            ADD     R00,R24         
	00F1B19E: 0908            ADDQ    $8,R08          
	00F1B1A0: 0000            ADD     R00,R00         
	00F1B1A2: 0000            ADD     R00,R00         
	00F1B1A4: 0000            ADD     R00,R00         
	00F1B1A6: 0000            ADD     R00,R00         
	00F1B1A8: 0000            ADD     R00,R00         
	00F1B1AA: 07C6            ADDC    R30,R06         
	00F1B1AC: 0018            ADD     R00,R24         
	00F1B1AE: 0908            ADDQ    $8,R08          
	00F1B1B0: 0018            ADD     R00,R24         
	00F1B1B2: 0908            ADDQ    $8,R08          
	00F1B1B4: 0018            ADD     R00,R24         
	00F1B1B6: 0908            ADDQ    $8,R08          
	00F1B1B8: 0000            ADD     R00,R00         
	00F1B1BA: 0000            ADD     R00,R00         
	00F1B1BC: 0000            ADD     R00,R00         
	00F1B1BE: 0000            ADD     R00,R00         
	00F1B1C0: 0000            ADD     R00,R00         
	00F1B1C2: 07C6            ADDC    R30,R06         
	00F1B1C4: 0018            ADD     R00,R24         
	00F1B1C6: 0908            ADDQ    $8,R08          
	00F1B1C8: 0018            ADD     R00,R24         
	00F1B1CA: 0908            ADDQ    $8,R08          
	00F1B1CC: 0018            ADD     R00,R24         
	00F1B1CE: 0908            ADDQ    $8,R08          
	00F1B1D0: 0000            ADD     R00,R00         
	00F1B1D2: 0000            ADD     R00,R00         
	00F1B1D4: 0000            ADD     R00,R00         
	00F1B1D6: 0000            ADD     R00,R00         
	00F1B1D8: 0000            ADD     R00,R00         
	00F1B1DA: 07C6            ADDC    R30,R06         
	00F1B1DC: 0018            ADD     R00,R24         
	00F1B1DE: 0908            ADDQ    $8,R08          
	00F1B1E0: 0018            ADD     R00,R24         
	00F1B1E2: 0908            ADDQ    $8,R08          
	00F1B1E4: 0018            ADD     R00,R24         
	00F1B1E6: 0908            ADDQ    $8,R08          
	00F1B1E8: 0000            ADD     R00,R00         
	00F1B1EA: 0000            ADD     R00,R00         
	00F1B1EC: 0000            ADD     R00,R00         
	00F1B1EE: 0000            ADD     R00,R00         
	00F1B1F0: 0000            ADD     R00,R00         
	00F1B1F2: 07C6            ADDC    R30,R06         
	00F1B1F4: 0018            ADD     R00,R24         
	00F1B1F6: 0908            ADDQ    $8,R08          
	00F1B1F8: 0018            ADD     R00,R24         
	00F1B1FA: 0908            ADDQ    $8,R08          
	00F1B1FC: 0018            ADD     R00,R24         
	00F1B1FE: 0908            ADDQ    $8,R08          
	00F1B200: 0000            ADD     R00,R00         
	00F1B202: 0000            ADD     R00,R00         
	00F1B204: 0000            ADD     R00,R00         
	00F1B206: 0000            ADD     R00,R00         
	00F1B208: 0000            ADD     R00,R00         
	00F1B20A: 07C6            ADDC    R30,R06         
	00F1B20C: 0018            ADD     R00,R24         
	00F1B20E: 0908            ADDQ    $8,R08          
	00F1B210: 0018            ADD     R00,R24         
	00F1B212: 0908            ADDQ    $8,R08          
	00F1B214: 0018            ADD     R00,R24         
	00F1B216: 0908            ADDQ    $8,R08          
	00F1B218: 0000            ADD     R00,R00         
	00F1B21A: 0000            ADD     R00,R00         
	00F1B21C: 0000            ADD     R00,R00         
	00F1B21E: 0000            ADD     R00,R00         
	00F1B220: 0000            ADD     R00,R00         
	00F1B222: 07C6            ADDC    R30,R06         
	00F1B224: 0018            ADD     R00,R24         
	00F1B226: 0908            ADDQ    $8,R08          
	00F1B228: 0018            ADD     R00,R24         
	00F1B22A: 0908            ADDQ    $8,R08          
	00F1B22C: 0018            ADD     R00,R24         
	00F1B22E: 0908            ADDQ    $8,R08          
	00F1B230: 0000            ADD     R00,R00         
	00F1B232: 0000            ADD     R00,R00         
	00F1B234: 0000            ADD     R00,R00         
	00F1B236: 0000            ADD     R00,R00         
	00F1B238: 0000            ADD     R00,R00         
	00F1B23A: 07C6            ADDC    R30,R06         
	00F1B23C: 0018            ADD     R00,R24         
	00F1B23E: 0908            ADDQ    $8,R08          
	00F1B240: 0018            ADD     R00,R24         
	00F1B242: 0908            ADDQ    $8,R08          
	00F1B244: 0018            ADD     R00,R24         
	00F1B246: 0908            ADDQ    $8,R08          
	00F1B248: 0000            ADD     R00,R00         
	00F1B24A: 0000            ADD     R00,R00         
	00F1B24C: 0000            ADD     R00,R00         
	00F1B24E: 0000            ADD     R00,R00         
	00F1B250: 0000            ADD     R00,R00         
	00F1B252: 07C6            ADDC    R30,R06         
	00F1B254: 0018            ADD     R00,R24         
	00F1B256: 0908            ADDQ    $8,R08          
	00F1B258: 0018            ADD     R00,R24         
	00F1B25A: 0908            ADDQ    $8,R08          
	00F1B25C: 0018            ADD     R00,R24         
	00F1B25E: 0908            ADDQ    $8,R08          
	00F1B260: 0000            ADD     R00,R00         
	00F1B262: 0000            ADD     R00,R00         
	00F1B264: 0000            ADD     R00,R00         
	00F1B266: 0000            ADD     R00,R00         
	00F1B268: 0000            ADD     R00,R00         
	00F1B26A: 07C6            ADDC    R30,R06         
	00F1B26C: 0018            ADD     R00,R24         
	00F1B26E: 0908            ADDQ    $8,R08          
	00F1B270: 0018            ADD     R00,R24         
	00F1B272: 0908            ADDQ    $8,R08          
	00F1B274: 0018            ADD     R00,R24         
	00F1B276: 0908            ADDQ    $8,R08          
	00F1B278: 0000            ADD     R00,R00         
	00F1B27A: 0000            ADD     R00,R00         
	00F1B27C: 0000            ADD     R00,R00         
	00F1B27E: 0000            ADD     R00,R00         
	00F1B280: 0000            ADD     R00,R00         
	00F1B282: 07C6            ADDC    R30,R06         
	00F1B284: 0018            ADD     R00,R24         
	00F1B286: 0908            ADDQ    $8,R08          
	00F1B288: 0018            ADD     R00,R24         
	00F1B28A: 0908            ADDQ    $8,R08          
	00F1B28C: 0018            ADD     R00,R24         
	00F1B28E: 0908            ADDQ    $8,R08          
	00F1B290: 0000            ADD     R00,R00         
	00F1B292: 0000            ADD     R00,R00         
	00F1B294: 0000            ADD     R00,R00         
	00F1B296: 0000            ADD     R00,R00         
	00F1B298: 0000            ADD     R00,R00         
	00F1B29A: 07C6            ADDC    R30,R06         
	00F1B29C: 0018            ADD     R00,R24         
	00F1B29E: 0908            ADDQ    $8,R08          
	00F1B2A0: 0018            ADD     R00,R24         
	00F1B2A2: 0908            ADDQ    $8,R08          
	00F1B2A4: 0018            ADD     R00,R24         
	00F1B2A6: 0908            ADDQ    $8,R08          
	00F1B2A8: 0000            ADD     R00,R00         
	00F1B2AA: 0000            ADD     R00,R00         
	00F1B2AC: 0000            ADD     R00,R00         
	00F1B2AE: 0000            ADD     R00,R00         
	00F1B2B0: 0000            ADD     R00,R00         
	00F1B2B2: 07C6            ADDC    R30,R06         
	00F1B2B4: 0018            ADD     R00,R24         
	00F1B2B6: 0908            ADDQ    $8,R08          
	00F1B2B8: 0018            ADD     R00,R24         
	00F1B2BA: 0908            ADDQ    $8,R08          
	00F1B2BC: 0018            ADD     R00,R24         
	00F1B2BE: 0908            ADDQ    $8,R08          
	00F1B2C0: 0000            ADD     R00,R00         
	00F1B2C2: 0000            ADD     R00,R00         
	00F1B2C4: 0000            ADD     R00,R00         
	00F1B2C6: 0000            ADD     R00,R00         
	00F1B2C8: 0000            ADD     R00,R00         
	00F1B2CA: 07C6            ADDC    R30,R06         
	00F1B2CC: 0018            ADD     R00,R24         
	00F1B2CE: 0908            ADDQ    $8,R08          
	00F1B2D0: 0018            ADD     R00,R24         
	00F1B2D2: 0908            ADDQ    $8,R08          
	00F1B2D4: 0018            ADD     R00,R24         
	00F1B2D6: 0908            ADDQ    $8,R08          
	00F1B2D8: 0000            ADD     R00,R00         
	00F1B2DA: 0000            ADD     R00,R00         
	00F1B2DC: 0000            ADD     R00,R00         
	00F1B2DE: 0000            ADD     R00,R00         
	00F1B2E0: 0000            ADD     R00,R00         
	00F1B2E2: 07C6            ADDC    R30,R06         
	00F1B2E4: 0018            ADD     R00,R24         
	00F1B2E6: 0908            ADDQ    $8,R08          
	00F1B2E8: 0018            ADD     R00,R24         
	00F1B2EA: 0908            ADDQ    $8,R08          
	00F1B2EC: 0018            ADD     R00,R24         
	00F1B2EE: 0908            ADDQ    $8,R08          
	00F1B2F0: 0000            ADD     R00,R00         
	00F1B2F2: 0000            ADD     R00,R00         
	00F1B2F4: 0000            ADD     R00,R00         
	00F1B2F6: 0000            ADD     R00,R00         
	00F1B2F8: 0000            ADD     R00,R00         
	00F1B2FA: 07C6            ADDC    R30,R06         
	00F1B2FC: 0018            ADD     R00,R24         
	00F1B2FE: 0908            ADDQ    $8,R08          
	00F1B300: 0018            ADD     R00,R24         
	00F1B302: 0908            ADDQ    $8,R08          
	00F1B304: 0018            ADD     R00,R24         
	00F1B306: 0908            ADDQ    $8,R08          
	00F1B308: 0000            ADD     R00,R00         
	00F1B30A: 0000            ADD     R00,R00         
	00F1B30C: 0000            ADD     R00,R00         
	00F1B30E: 0000            ADD     R00,R00         
	00F1B310: 0000            ADD     R00,R00         
	00F1B312: 07C6            ADDC    R30,R06         
	00F1B314: 0018            ADD     R00,R24         
	00F1B316: 0908            ADDQ    $8,R08          
	00F1B318: 0018            ADD     R00,R24         
	00F1B31A: 0908            ADDQ    $8,R08          
	00F1B31C: 0018            ADD     R00,R24         
	00F1B31E: 0908            ADDQ    $8,R08          
	00F1B320: 0000            ADD     R00,R00         
	00F1B322: 0000            ADD     R00,R00         
	00F1B324: 0000            ADD     R00,R00         
	00F1B326: 0000            ADD     R00,R00         
	00F1B328: 0000            ADD     R00,R00         
	00F1B32A: 07C6            ADDC    R30,R06         
	00F1B32C: 0000            ADD     R00,R00         
	00F1B32E: 5140            IMACN   R10,R00         
	00F1B330: 00F1            ADD     R07,R17         
	00F1B332: C970            STORE   R16,(R15+$2C)   
	00F1B334: 00F1            ADD     R07,R17         
	00F1B336: C7EE            STORE   R14,(R14+$7C)   
	00F1B338: 00F1            ADD     R07,R17         
	00F1B33A: C7FE            STORE   R30,(R14+$7C)   
	00F1B33C: 00F1            ADD     R07,R17         
	00F1B33E: C80C            STORE   R12,(R15+$80)   
	00F1B340: 00F1            ADD     R07,R17         
	00F1B342: C836            STORE   R22,(R15+$4)    
	00F1B344: 00F1            ADD     R07,R17         
	00F1B346: C970            STORE   R16,(R15+$2C)   
	00F1B348: 00F1            ADD     R07,R17         
	00F1B34A: C87A            STORE   R26,(R15+$C)    
	00F1B34C: 00F1            ADD     R07,R17         
	00F1B34E: C970            STORE   R16,(R15+$2C)   
	00F1B350: 00F1            ADD     R07,R17         
	00F1B352: C970            STORE   R16,(R15+$2C)   
	00F1B354: 00F1            ADD     R07,R17         
	00F1B356: C8AC            STORE   R12,(R15+$14)   
	00F1B358: 00F1            ADD     R07,R17         
	00F1B35A: C8BE            STORE   R30,(R15+$14)   
	00F1B35C: 00F1            ADD     R07,R17         
	00F1B35E: C8EE            STORE   R14,(R15+$1C)   
	00F1B360: 00F1            ADD     R07,R17         
	00F1B362: C8FE            STORE   R30,(R15+$1C)   
	00F1B364: 00F1            ADD     R07,R17         
	00F1B366: C910            STORE   R16,(R15+$20)   
	00F1B368: 00F1            ADD     R07,R17         
	00F1B36A: C920            STORE   R00,(R15+$24)   
	00F1B36C: 00F1            ADD     R07,R17         
	00F1B36E: C936            STORE   R22,(R15+$24)   
	00F1B370: 00F1            ADD     R07,R17         
	00F1B372: CB12            STORE   R18,(R15+$60)   
	00F1B374: 00F1            ADD     R07,R17         
	00F1B376: CB18            STORE   R24,(R15+$60)   
	00F1B378: 00F1            ADD     R07,R17         
	00F1B37A: CB18            STORE   R24,(R15+$60)   
	00F1B37C: 00F1            ADD     R07,R17         
	00F1B37E: CB4A            STORE   R10,(R15+$68)   
	00F1B380: 00F1            ADD     R07,R17         
	00F1B382: CBA6            STORE   R06,(R15+$74)   
	00F1B384: 00F1            ADD     R07,R17         
	00F1B386: CB12            STORE   R18,(R15+$60)   
	00F1B388: 00F1            ADD     R07,R17         
	00F1B38A: CC20            MOVE    PC,R00          
	00F1B38C: 00F1            ADD     R07,R17         
	00F1B38E: CB12            STORE   R18,(R15+$60)   
	00F1B390: 00F1            ADD     R07,R17         
	00F1B392: CB12            STORE   R18,(R15+$60)   
	00F1B394: 00F1            ADD     R07,R17         
	00F1B396: CB12            STORE   R18,(R15+$60)   
	00F1B398: 00F1            ADD     R07,R17         
	00F1B39A: CC38            MOVE    PC,R24          
	00F1B39C: 00F1            ADD     R07,R17         
	00F1B39E: CB12            STORE   R18,(R15+$60)   
	00F1B3A0: 00F1            ADD     R07,R17         
	00F1B3A2: CB12            STORE   R18,(R15+$60)   
	00F1B3A4: 00F1            ADD     R07,R17         
	00F1B3A6: CB12            STORE   R18,(R15+$60)   
	00F1B3A8: 00F1            ADD     R07,R17         
	00F1B3AA: CB12            STORE   R18,(R15+$60)   
	00F1B3AC: 00F1            ADD     R07,R17         
	00F1B3AE: CB12            STORE   R18,(R15+$60)   
	00F1B3B0: 00F1            ADD     R07,R17         
	00F1B3B2: C970            STORE   R16,(R15+$2C)   
	00F1B3B4: 00F1            ADD     R07,R17         
	00F1B3B6: C976            STORE   R22,(R15+$2C)   
	00F1B3B8: 00F1            ADD     R07,R17         
	00F1B3BA: C976            STORE   R22,(R15+$2C)   
	00F1B3BC: 00F1            ADD     R07,R17         
	00F1B3BE: C970            STORE   R16,(R15+$2C)   
	00F1B3C0: 00F1            ADD     R07,R17         
	00F1B3C2: C970            STORE   R16,(R15+$2C)   
	00F1B3C4: 00F1            ADD     R07,R17         
	00F1B3C6: C970            STORE   R16,(R15+$2C)   
	00F1B3C8: 00F1            ADD     R07,R17         
	00F1B3CA: C970            STORE   R16,(R15+$2C)   
	00F1B3CC: 00F1            ADD     R07,R17         
	00F1B3CE: C970            STORE   R16,(R15+$2C)   
	00F1B3D0: 00F1            ADD     R07,R17         
	00F1B3D2: C970            STORE   R16,(R15+$2C)   
	00F1B3D4: 00F1            ADD     R07,R17         
	00F1B3D6: C970            STORE   R16,(R15+$2C)   
	00F1B3D8: 00F1            ADD     R07,R17         
	00F1B3DA: C9AE            STORE   R14,(R15+$34)   
	00F1B3DC: 00F1            ADD     R07,R17         
	00F1B3DE: C9C2            STORE   R02,(R15+$38)   
	00F1B3E0: 00F1            ADD     R07,R17         
	00F1B3E2: C970            STORE   R16,(R15+$2C)   
	00F1B3E4: 00F1            ADD     R07,R17         
	00F1B3E6: C970            STORE   R16,(R15+$2C)   
	00F1B3E8: 00F1            ADD     R07,R17         
	00F1B3EA: C970            STORE   R16,(R15+$2C)   
	00F1B3EC: 00F1            ADD     R07,R17         
	00F1B3EE: C970            STORE   R16,(R15+$2C)   
	00F1B3F0: 0000            ADD     R00,R00         
	00F1B3F2: 0000            ADD     R00,R00         
	00F1B3F4: 00F1            ADD     R07,R17         
	00F1B3F6: B570            STOREB  R16,(R11)       
	00F1B3F8: 0000            ADD     R00,R00         
	00F1B3FA: 0000            ADD     R00,R00         
	00F1B3FC: 0000            ADD     R00,R00         
	00F1B3FE: 0001            ADD     R00,R01         
	00F1B400: 0000            ADD     R00,R00         
	00F1B402: 000F            ADD     R00,R15         
	00F1B404: 0000            ADD     R00,R00         
	00F1B406: 000F            ADD     R00,R15         
	00F1B408: 0000            ADD     R00,R00         
	00F1B40A: 000F            ADD     R00,R15         
	00F1B40C: 0000            ADD     R00,R00         
	00F1B40E: 000F            ADD     R00,R15         
	00F1B410: 0000            ADD     R00,R00         
	00F1B412: 0153            ADD     R10,R19         
	00F1B414: 0000            ADD     R00,R00         
	00F1B416: 0000            ADD     R00,R00         
	00F1B418: 0000            ADD     R00,R00         
	00F1B41A: 0000            ADD     R00,R00         
	00F1B41C: 0000            ADD     R00,R00         
	00F1B41E: 0006            ADD     R00,R06         
	00F1B420: 0000            ADD     R00,R00         
	00F1B422: 0000            ADD     R00,R00         
	00F1B424: 0000            ADD     R00,R00         
	00F1B426: 0000            ADD     R00,R00         
	00F1B428: 0000            ADD     R00,R00         
	00F1B42A: 0000            ADD     R00,R00         
	00F1B42C: 0000            ADD     R00,R00         
	00F1B42E: 0000            ADD     R00,R00         
	00F1B430: 0000            ADD     R00,R00         
	00F1B432: 0153            ADD     R10,R19         
	00F1B434: 0000            ADD     R00,R00         
	00F1B436: 0000            ADD     R00,R00         
	00F1B438: 0000            ADD     R00,R00         
	00F1B43A: 0000            ADD     R00,R00         
	00F1B43C: 0000            ADD     R00,R00         
	00F1B43E: 0006            ADD     R00,R06         
	00F1B440: 0000            ADD     R00,R00         
	00F1B442: 0000            ADD     R00,R00         
	00F1B444: 0000            ADD     R00,R00         
	00F1B446: 0000            ADD     R00,R00         
	00F1B448: 0000            ADD     R00,R00         
	00F1B44A: 0000            ADD     R00,R00         
	00F1B44C: 0000            ADD     R00,R00         
	00F1B44E: 0000            ADD     R00,R00         
	00F1B450: 0000            ADD     R00,R00         
	00F1B452: 0153            ADD     R10,R19         
	00F1B454: 0000            ADD     R00,R00         
	00F1B456: 0000            ADD     R00,R00         
	00F1B458: 0000            ADD     R00,R00         
	00F1B45A: 0000            ADD     R00,R00         
	00F1B45C: 0000            ADD     R00,R00         
	00F1B45E: 0006            ADD     R00,R06         
	00F1B460: 0000            ADD     R00,R00         
	00F1B462: 0000            ADD     R00,R00         
	00F1B464: 0000            ADD     R00,R00         
	00F1B466: 0000            ADD     R00,R00         
	00F1B468: 0000            ADD     R00,R00         
	00F1B46A: 0000            ADD     R00,R00         
	00F1B46C: 0000            ADD     R00,R00         
	00F1B46E: 0000            ADD     R00,R00         
	00F1B470: 0000            ADD     R00,R00         
	00F1B472: 0153            ADD     R10,R19         
	00F1B474: 0000            ADD     R00,R00         
	00F1B476: 0000            ADD     R00,R00         
	00F1B478: 0000            ADD     R00,R00         
	00F1B47A: 0000            ADD     R00,R00         
	00F1B47C: 0000            ADD     R00,R00         
	00F1B47E: 0006            ADD     R00,R06         
	00F1B480: 0000            ADD     R00,R00         
	00F1B482: 0000            ADD     R00,R00         
	00F1B484: 0000            ADD     R00,R00         
	00F1B486: 0000            ADD     R00,R00         
	00F1B488: 0000            ADD     R00,R00         
	00F1B48A: 0000            ADD     R00,R00         
	00F1B48C: 0000            ADD     R00,R00         
	00F1B48E: 0000            ADD     R00,R00         
	00F1B490: 0000            ADD     R00,R00         
	00F1B492: 0006            ADD     R00,R06         
	00F1B494: 0016            ADD     R00,R22         
	00F1B496: AD78            LOAD    (R14+$2C),R24   
	00F1B498: 0016            ADD     R00,R22         
	00F1B49A: ADFC            LOAD    (R14+$3C),R28   
	00F1B49C: 0016            ADD     R00,R22         
	00F1B49E: A9C0            SAT32S  R00             
	00F1B4A0: 0000            ADD     R00,R00         
	00F1B4A2: 4851            IMULTN  R02,R17         
	00F1B4A4: 0000            ADD     R00,R00         
	00F1B4A6: FF80            ADDQMOD $1C,R00         
	00F1B4A8: 001A            ADD     R00,R26         
	00F1B4AA: 882C            MOVE    R01,R12         
	00F1B4AC: 0000            ADD     R00,R00         
	00F1B4AE: 0004            ADD     R00,R04         
	00F1B4B0: 0000            ADD     R00,R00         
	00F1B4B2: 0006            ADD     R00,R06         
	00F1B4B4: 0000            ADD     R00,R00         
	00F1B4B6: 0011            ADD     R00,R17         
	00F1B4B8: 0000            ADD     R00,R00         
	00F1B4BA: 0000            ADD     R00,R00         
	00F1B4BC: 0000            ADD     R00,R00         
	00F1B4BE: 0000            ADD     R00,R00         
	00F1B4C0: 0000            ADD     R00,R00         
	00F1B4C2: 0000            ADD     R00,R00         
	00F1B4C4: 0000            ADD     R00,R00         
	00F1B4C6: 0000            ADD     R00,R00         
	00F1B4C8: 0000            ADD     R00,R00         
	00F1B4CA: 0000            ADD     R00,R00         
	00F1B4CC: 0000            ADD     R00,R00         
	00F1B4CE: 0000            ADD     R00,R00         
	00F1B4D0: 0000            ADD     R00,R00         
	00F1B4D2: 0000            ADD     R00,R00         
	00F1B4D4: 0000            ADD     R00,R00         
	00F1B4D6: 0000            ADD     R00,R00         
	00F1B4D8: 0000            ADD     R00,R00         
	00F1B4DA: 0000            ADD     R00,R00         
	00F1B4DC: 0000            ADD     R00,R00         
	00F1B4DE: 0000            ADD     R00,R00         
	00F1B4E0: 0000            ADD     R00,R00         
	00F1B4E2: 0000            ADD     R00,R00         
	00F1B4E4: 0000            ADD     R00,R00         
	00F1B4E6: 0000            ADD     R00,R00         
	00F1B4E8: 0000            ADD     R00,R00         
	00F1B4EA: 0000            ADD     R00,R00         
	00F1B4EC: 0000            ADD     R00,R00         
	00F1B4EE: 0000            ADD     R00,R00         
	00F1B4F0: 0000            ADD     R00,R00         
	00F1B4F2: 0000            ADD     R00,R00         
	00F1B4F4: 0000            ADD     R00,R00         
	00F1B4F6: 0000            ADD     R00,R00         
	00F1B4F8: 0000            ADD     R00,R00         
	00F1B4FA: 0000            ADD     R00,R00         
	00F1B4FC: 0000            ADD     R00,R00         
	00F1B4FE: 0000            ADD     R00,R00         
	00F1B500: 0000            ADD     R00,R00         
	00F1B502: 0000            ADD     R00,R00         
	00F1B504: 0000            ADD     R00,R00         
	00F1B506: 0000            ADD     R00,R00         
	00F1B508: 0000            ADD     R00,R00         
	00F1B50A: 0000            ADD     R00,R00         
	00F1B50C: 0000            ADD     R00,R00         
	00F1B50E: 0000            ADD     R00,R00         
	00F1B510: 0000            ADD     R00,R00         
	00F1B512: 0000            ADD     R00,R00         
	00F1B514: 0000            ADD     R00,R00         
	00F1B516: 0000            ADD     R00,R00         
	00F1B518: 0000            ADD     R00,R00         
	00F1B51A: 0000            ADD     R00,R00         
	00F1B51C: 0000            ADD     R00,R00         
	00F1B51E: 0000            ADD     R00,R00         
	00F1B520: 0000            ADD     R00,R00         
	00F1B522: 0000            ADD     R00,R00         
	00F1B524: 0000            ADD     R00,R00         
	00F1B526: 0000            ADD     R00,R00         
	00F1B528: 0000            ADD     R00,R00         
	00F1B52A: 0000            ADD     R00,R00         
	00F1B52C: 0000            ADD     R00,R00         
	00F1B52E: 0000            ADD     R00,R00         
	00F1B530: 0000            ADD     R00,R00         
	00F1B532: 0000            ADD     R00,R00         
	00F1B534: 0000            ADD     R00,R00         
	00F1B536: 0000            ADD     R00,R00         
	00F1B538: 0000            ADD     R00,R00         
	00F1B53A: 0000            ADD     R00,R00         
	00F1B53C: 0000            ADD     R00,R00         
	00F1B53E: 0000            ADD     R00,R00         
	00F1B540: 0000            ADD     R00,R00         
	00F1B542: 0000            ADD     R00,R00         
	00F1B544: 0000            ADD     R00,R00         
	00F1B546: 0000            ADD     R00,R00         
	00F1B548: 0000            ADD     R00,R00         
	00F1B54A: 0000            ADD     R00,R00         
	00F1B54C: 0000            ADD     R00,R00         
	00F1B54E: 0000            ADD     R00,R00         
	00F1B550: 0000            ADD     R00,R00         
	00F1B552: 0000            ADD     R00,R00         
	00F1B554: 0000            ADD     R00,R00         
	00F1B556: 0000            ADD     R00,R00         
	00F1B558: 0000            ADD     R00,R00         
	00F1B55A: 0000            ADD     R00,R00         
	00F1B55C: 0000            ADD     R00,R00         
	00F1B55E: 0000            ADD     R00,R00         
	00F1B560: 0000            ADD     R00,R00         
	00F1B562: 0000            ADD     R00,R00         
	00F1B564: 0000            ADD     R00,R00         
	00F1B566: 0000            ADD     R00,R00         
	00F1B568: 0000            ADD     R00,R00         
	00F1B56A: 0000            ADD     R00,R00         
	00F1B56C: 0F1B            ADDQT   $18,R27         
	00F1B56E: 044B            ADDC    R02,R11         
	00F1B570: 0000            ADD     R00,R00         
	00F1B572: 0000            ADD     R00,R00         
	00F1B574: 0000            ADD     R00,R00         
	00F1B576: 1013            SUB     R00,R19         
	00F1B578: 0000            ADD     R00,R00         
	00F1B57A: 0000            ADD     R00,R00         
	00F1B57C: 0000            ADD     R00,R00         
	00F1B57E: 0000            ADD     R00,R00         
	00F1B580: 0000            ADD     R00,R00         
	00F1B582: 0000            ADD     R00,R00         
	00F1B584: 0000            ADD     R00,R00         
	00F1B586: 0000            ADD     R00,R00         
	00F1B588: 0000            ADD     R00,R00         
	00F1B58A: 0000            ADD     R00,R00         
	00F1B58C: 0000            ADD     R00,R00         
	00F1B58E: 0000            ADD     R00,R00         
	00F1B590: 0000            ADD     R00,R00         
	00F1B592: 0000            ADD     R00,R00         
	00F1B594: 0000            ADD     R00,R00         
	00F1B596: 0000            ADD     R00,R00         
	00F1B598: 0000            ADD     R00,R00         
	00F1B59A: 0000            ADD     R00,R00         
	00F1B59C: 0000            ADD     R00,R00         
	00F1B59E: 0000            ADD     R00,R00         
	00F1B5A0: 0000            ADD     R00,R00         
	00F1B5A2: 0000            ADD     R00,R00         
	00F1B5A4: 0000            ADD     R00,R00         
	00F1B5A6: 0000            ADD     R00,R00         
	00F1B5A8: 0000            ADD     R00,R00         
	00F1B5AA: 0000            ADD     R00,R00         
	00F1B5AC: 0000            ADD     R00,R00         
	00F1B5AE: 0000            ADD     R00,R00         
	00F1B5B0: 0000            ADD     R00,R00         
	00F1B5B2: 0000            ADD     R00,R00         
	00F1B5B4: 0000            ADD     R00,R00         
	00F1B5B6: 0000            ADD     R00,R00         
	00F1B5B8: 0000            ADD     R00,R00         
	00F1B5BA: 0000            ADD     R00,R00         
	00F1B5BC: C000            MIRROR  R00             
	00F1B5BE: 0010            ADD     R00,R16         
	00F1B5C0: 00F1            ADD     R07,R17         
	00F1B5C2: C470            STORE   R16,(R14+$C)    
	00F1B5C4: 00F1            ADD     R07,R17         
	00F1B5C6: C24C            MIRROR  R12             
	00F1B5C8: 0000            ADD     R00,R00         
	00F1B5CA: 0000            ADD     R00,R00         
	00F1B5CC: 0000            ADD     R00,R00         
	00F1B5CE: 0000            ADD     R00,R00         
	00F1B5D0: 0000            ADD     R00,R00         
	00F1B5D2: 0002            ADD     R00,R02         
	00F1B5D4: C000            MIRROR  R00             
	00F1B5D6: 0000            ADD     R00,R00         
	00F1B5D8: FFFF            ADDQMOD $1F,R31         
	00F1B5DA: FF80            ADDQMOD $1C,R00         
	00F1B5DC: FFFF            ADDQMOD $1F,R31         
	00F1B5DE: FFA0            ADDQMOD $1D,R00         
	00F1B5E0: FFFF            ADDQMOD $1F,R31         
	00F1B5E2: FF80            ADDQMOD $1C,R00         
	00F1B5E4: FFFF            ADDQMOD $1F,R31         
	00F1B5E6: FF80            ADDQMOD $1C,R00         
	00F1B5E8: 0000            ADD     R00,R00         
	00F1B5EA: 0000            ADD     R00,R00         
	00F1B5EC: 0000            ADD     R00,R00         
	00F1B5EE: 0000            ADD     R00,R00         
	00F1B5F0: 0000            ADD     R00,R00         
	00F1B5F2: 0000            ADD     R00,R00         
	00F1B5F4: 0000            ADD     R00,R00         
	00F1B5F6: 0000            ADD     R00,R00         
	00F1B5F8: FFFF            ADDQMOD $1F,R31         
	00F1B5FA: FF40            ADDQMOD $1A,R00         
	00F1B5FC: FFFF            ADDQMOD $1F,R31         
	00F1B5FE: FF90            ADDQMOD $1C,R16         
	00F1B600: FFFF            ADDQMOD $1F,R31         
	00F1B602: FF40            ADDQMOD $1A,R00         
	00F1B604: FFFF            ADDQMOD $1F,R31         
	00F1B606: FF40            ADDQMOD $1A,R00         
	00F1B608: 0000            ADD     R00,R00         
	00F1B60A: 0000            ADD     R00,R00         
	00F1B60C: 0000            ADD     R00,R00         
	00F1B60E: 0000            ADD     R00,R00         
	00F1B610: 0000            ADD     R00,R00         
	00F1B612: 0000            ADD     R00,R00         
	00F1B614: 0000            ADD     R00,R00         
	00F1B616: 0000            ADD     R00,R00         
	00F1B618: FFFF            ADDQMOD $1F,R31         
	00F1B61A: FFC0            ADDQMOD $1E,R00         
	00F1B61C: FFFF            ADDQMOD $1F,R31         
	00F1B61E: FFF0            ADDQMOD $1F,R16         
	00F1B620: FFFF            ADDQMOD $1F,R31         
	00F1B622: FFC0            ADDQMOD $1E,R00         
	00F1B624: FFFF            ADDQMOD $1F,R31         
	00F1B626: FFC0            ADDQMOD $1E,R00         
	00F1B628: 0000            ADD     R00,R00         
	00F1B62A: 0000            ADD     R00,R00         
	00F1B62C: 0000            ADD     R00,R00         
	00F1B62E: 0000            ADD     R00,R00         
	00F1B630: 0000            ADD     R00,R00         
	00F1B632: 0000            ADD     R00,R00         
	00F1B634: 0000            ADD     R00,R00         
	00F1B636: 0000            ADD     R00,R00         
	00F1B638: FFFF            ADDQMOD $1F,R31         
	00F1B63A: FF80            ADDQMOD $1C,R00         
	00F1B63C: FFFF            ADDQMOD $1F,R31         
	00F1B63E: FFD0            ADDQMOD $1E,R16         
	00F1B640: FFFF            ADDQMOD $1F,R31         
	00F1B642: FF80            ADDQMOD $1C,R00         
	00F1B644: FFFF            ADDQMOD $1F,R31         
	00F1B646: FF80            ADDQMOD $1C,R00         
	00F1B648: 0000            ADD     R00,R00         
	00F1B64A: 0000            ADD     R00,R00         
	00F1B64C: 0000            ADD     R00,R00         
	00F1B64E: 0000            ADD     R00,R00         
	00F1B650: 0000            ADD     R00,R00         
	00F1B652: 0000            ADD     R00,R00         
	00F1B654: 0000            ADD     R00,R00         
	00F1B656: 0000            ADD     R00,R00         
	00F1B658: FFFF            ADDQMOD $1F,R31         
	00F1B65A: FF80            ADDQMOD $1C,R00         
	00F1B65C: 0000            ADD     R00,R00         
	00F1B65E: 0020            ADD     R01,R00         
	00F1B660: FFFF            ADDQMOD $1F,R31         
	00F1B662: FF80            ADDQMOD $1C,R00         
	00F1B664: FFFF            ADDQMOD $1F,R31         
	00F1B666: FF80            ADDQMOD $1C,R00         
	00F1B668: 0000            ADD     R00,R00         
	00F1B66A: 0000            ADD     R00,R00         
	00F1B66C: 0000            ADD     R00,R00         
	00F1B66E: 0000            ADD     R00,R00         
	00F1B670: 0000            ADD     R00,R00         
	00F1B672: 0000            ADD     R00,R00         
	00F1B674: 0000            ADD     R00,R00         
	00F1B676: 0000            ADD     R00,R00         
	00F1B678: FFFF            ADDQMOD $1F,R31         
	00F1B67A: FF80            ADDQMOD $1C,R00         
	00F1B67C: 0000            ADD     R00,R00         
	00F1B67E: 0010            ADD     R00,R16         
	00F1B680: FFFF            ADDQMOD $1F,R31         
	00F1B682: FF80            ADDQMOD $1C,R00         
	00F1B684: FFFF            ADDQMOD $1F,R31         
	00F1B686: FF80            ADDQMOD $1C,R00         
	00F1B688: 0000            ADD     R00,R00         
	00F1B68A: 0000            ADD     R00,R00         
	00F1B68C: 0000            ADD     R00,R00         
	00F1B68E: 0000            ADD     R00,R00         
	00F1B690: 0000            ADD     R00,R00         
	00F1B692: 0000            ADD     R00,R00         
	00F1B694: 0000            ADD     R00,R00         
	00F1B696: 0000            ADD     R00,R00         
	00F1B698: FFFF            ADDQMOD $1F,R31         
	00F1B69A: FEC0            ADDQMOD $16,R00         
	00F1B69C: FFFF            ADDQMOD $1F,R31         
	00F1B69E: FFC0            ADDQMOD $1E,R00         
	00F1B6A0: FFFF            ADDQMOD $1F,R31         
	00F1B6A2: FEC0            ADDQMOD $16,R00         
	00F1B6A4: FFFF            ADDQMOD $1F,R31         
	00F1B6A6: FEC0            ADDQMOD $16,R00         
	00F1B6A8: 0000            ADD     R00,R00         
	00F1B6AA: 0000            ADD     R00,R00         
	00F1B6AC: 0000            ADD     R00,R00         
	00F1B6AE: 0000            ADD     R00,R00         
	00F1B6B0: 0000            ADD     R00,R00         
	00F1B6B2: 0000            ADD     R00,R00         
	00F1B6B4: 0000            ADD     R00,R00         
	00F1B6B6: 0000            ADD     R00,R00         
	00F1B6B8: FFFF            ADDQMOD $1F,R31         
	00F1B6BA: FEC0            ADDQMOD $16,R00         
	00F1B6BC: FFFF            ADDQMOD $1F,R31         
	00F1B6BE: FFC0            ADDQMOD $1E,R00         
	00F1B6C0: FFFF            ADDQMOD $1F,R31         
	00F1B6C2: FEC0            ADDQMOD $16,R00         
	00F1B6C4: FFFF            ADDQMOD $1F,R31         
	00F1B6C6: FEC0            ADDQMOD $16,R00         
	00F1B6C8: 0000            ADD     R00,R00         
	00F1B6CA: 0000            ADD     R00,R00         
	00F1B6CC: 0000            ADD     R00,R00         
	00F1B6CE: 0000            ADD     R00,R00         
	00F1B6D0: 0000            ADD     R00,R00         
	00F1B6D2: 0000            ADD     R00,R00         
	00F1B6D4: 0000            ADD     R00,R00         
	00F1B6D6: 0000            ADD     R00,R00         
	00F1B6D8: FFFF            ADDQMOD $1F,R31         
	00F1B6DA: FE80            ADDQMOD $14,R00         
	00F1B6DC: FFFF            ADDQMOD $1F,R31         
	00F1B6DE: FFC0            ADDQMOD $1E,R00         
	00F1B6E0: FFFF            ADDQMOD $1F,R31         
	00F1B6E2: FE80            ADDQMOD $14,R00         
	00F1B6E4: FFFF            ADDQMOD $1F,R31         
	00F1B6E6: FE80            ADDQMOD $14,R00         
	00F1B6E8: 0000            ADD     R00,R00         
	00F1B6EA: 0000            ADD     R00,R00         
	00F1B6EC: 0000            ADD     R00,R00         
	00F1B6EE: 0000            ADD     R00,R00         
	00F1B6F0: 0000            ADD     R00,R00         
	00F1B6F2: 0000            ADD     R00,R00         
	00F1B6F4: 0000            ADD     R00,R00         
	00F1B6F6: 0000            ADD     R00,R00         
	00F1B6F8: FFFF            ADDQMOD $1F,R31         
	00F1B6FA: FE80            ADDQMOD $14,R00         
	00F1B6FC: FFFF            ADDQMOD $1F,R31         
	00F1B6FE: FF90            ADDQMOD $1C,R16         
	00F1B700: FFFF            ADDQMOD $1F,R31         
	00F1B702: FE80            ADDQMOD $14,R00         
	00F1B704: FFFF            ADDQMOD $1F,R31         
	00F1B706: FE80            ADDQMOD $14,R00         
	00F1B708: 0000            ADD     R00,R00         
	00F1B70A: 0000            ADD     R00,R00         
	00F1B70C: 0000            ADD     R00,R00         
	00F1B70E: 0000            ADD     R00,R00         
	00F1B710: 0000            ADD     R00,R00         
	00F1B712: 0000            ADD     R00,R00         
	00F1B714: 0000            ADD     R00,R00         
	00F1B716: 0000            ADD     R00,R00         
	00F1B718: FFFF            ADDQMOD $1F,R31         
	00F1B71A: FE80            ADDQMOD $14,R00         
	00F1B71C: FFFF            ADDQMOD $1F,R31         
	00F1B71E: FF90            ADDQMOD $1C,R16         
	00F1B720: FFFF            ADDQMOD $1F,R31         
	00F1B722: FE80            ADDQMOD $14,R00         
	00F1B724: FFFF            ADDQMOD $1F,R31         
	00F1B726: FE80            ADDQMOD $14,R00         
	00F1B728: 0000            ADD     R00,R00         
	00F1B72A: 0000            ADD     R00,R00         
	00F1B72C: 0000            ADD     R00,R00         
	00F1B72E: 0000            ADD     R00,R00         
	00F1B730: 0000            ADD     R00,R00         
	00F1B732: 0000            ADD     R00,R00         
	00F1B734: 0000            ADD     R00,R00         
	00F1B736: 0000            ADD     R00,R00         
	00F1B738: FFFF            ADDQMOD $1F,R31         
	00F1B73A: FE80            ADDQMOD $14,R00         
	00F1B73C: FFFF            ADDQMOD $1F,R31         
	00F1B73E: FF60            ADDQMOD $1B,R00         
	00F1B740: FFFF            ADDQMOD $1F,R31         
	00F1B742: FE80            ADDQMOD $14,R00         
	00F1B744: FFFF            ADDQMOD $1F,R31         
	00F1B746: FE80            ADDQMOD $14,R00         
	00F1B748: 0000            ADD     R00,R00         
	00F1B74A: 0000            ADD     R00,R00         
	00F1B74C: 0000            ADD     R00,R00         
	00F1B74E: 0000            ADD     R00,R00         
	00F1B750: 0000            ADD     R00,R00         
	00F1B752: 0000            ADD     R00,R00         
	00F1B754: 0000            ADD     R00,R00         
	00F1B756: 0000            ADD     R00,R00         
	00F1B758: FFFF            ADDQMOD $1F,R31         
	00F1B75A: FE80            ADDQMOD $14,R00         
	00F1B75C: FFFF            ADDQMOD $1F,R31         
	00F1B75E: FF60            ADDQMOD $1B,R00         
	00F1B760: FFFF            ADDQMOD $1F,R31         
	00F1B762: FE80            ADDQMOD $14,R00         
	00F1B764: FFFF            ADDQMOD $1F,R31         
	00F1B766: FE80            ADDQMOD $14,R00         
	00F1B768: 0000            ADD     R00,R00         
	00F1B76A: 0000            ADD     R00,R00         
	00F1B76C: 0000            ADD     R00,R00         
	00F1B76E: 0000            ADD     R00,R00         
	00F1B770: 0000            ADD     R00,R00         
	00F1B772: 0000            ADD     R00,R00         
	00F1B774: 0000            ADD     R00,R00         
	00F1B776: 0000            ADD     R00,R00         
	00F1B778: FFFF            ADDQMOD $1F,R31         
	00F1B77A: FE80            ADDQMOD $14,R00         
	00F1B77C: FFFF            ADDQMOD $1F,R31         
	00F1B77E: FF30            ADDQMOD $19,R16         
	00F1B780: FFFF            ADDQMOD $1F,R31         
	00F1B782: FE80            ADDQMOD $14,R00         
	00F1B784: FFFF            ADDQMOD $1F,R31         
	00F1B786: FE80            ADDQMOD $14,R00         
	00F1B788: 0000            ADD     R00,R00         
	00F1B78A: 0000            ADD     R00,R00         
	00F1B78C: 0000            ADD     R00,R00         
	00F1B78E: 0000            ADD     R00,R00         
	00F1B790: 0000            ADD     R00,R00         
	00F1B792: 0000            ADD     R00,R00         
	00F1B794: 0000            ADD     R00,R00         
	00F1B796: 0000            ADD     R00,R00         
	00F1B798: FFFF            ADDQMOD $1F,R31         
	00F1B79A: FE80            ADDQMOD $14,R00         
	00F1B79C: FFFF            ADDQMOD $1F,R31         
	00F1B79E: FF30            ADDQMOD $19,R16         
	00F1B7A0: FFFF            ADDQMOD $1F,R31         
	00F1B7A2: FE80            ADDQMOD $14,R00         
	00F1B7A4: FFFF            ADDQMOD $1F,R31         
	00F1B7A6: FE80            ADDQMOD $14,R00         
	00F1B7A8: 0000            ADD     R00,R00         
	00F1B7AA: 0000            ADD     R00,R00         
	00F1B7AC: 0000            ADD     R00,R00         
	00F1B7AE: 0000            ADD     R00,R00         
	00F1B7B0: 0000            ADD     R00,R00         
	00F1B7B2: 0000            ADD     R00,R00         
	00F1B7B4: 0000            ADD     R00,R00         
	00F1B7B6: 0000            ADD     R00,R00         
	00F1B7B8: FFFF            ADDQMOD $1F,R31         
	00F1B7BA: FE80            ADDQMOD $14,R00         
	00F1B7BC: FFFF            ADDQMOD $1F,R31         
	00F1B7BE: FF30            ADDQMOD $19,R16         
	00F1B7C0: FFFF            ADDQMOD $1F,R31         
	00F1B7C2: FE80            ADDQMOD $14,R00         
	00F1B7C4: FFFF            ADDQMOD $1F,R31         
	00F1B7C6: FE80            ADDQMOD $14,R00         
	00F1B7C8: 0000            ADD     R00,R00         
	00F1B7CA: 0000            ADD     R00,R00         
	00F1B7CC: 0000            ADD     R00,R00         
	00F1B7CE: 0000            ADD     R00,R00         
	00F1B7D0: 0000            ADD     R00,R00         
	00F1B7D2: 0000            ADD     R00,R00         
	00F1B7D4: 0000            ADD     R00,R00         
	00F1B7D6: 0000            ADD     R00,R00         
	00F1B7D8: FFFF            ADDQMOD $1F,R31         
	00F1B7DA: FE80            ADDQMOD $14,R00         
	00F1B7DC: FFFF            ADDQMOD $1F,R31         
	00F1B7DE: FF20            ADDQMOD $19,R00         
	00F1B7E0: FFFF            ADDQMOD $1F,R31         
	00F1B7E2: FE80            ADDQMOD $14,R00         
	00F1B7E4: FFFF            ADDQMOD $1F,R31         
	00F1B7E6: FE80            ADDQMOD $14,R00         
	00F1B7E8: 0000            ADD     R00,R00         
	00F1B7EA: 0000            ADD     R00,R00         
	00F1B7EC: 0000            ADD     R00,R00         
	00F1B7EE: 0000            ADD     R00,R00         
	00F1B7F0: 0000            ADD     R00,R00         
	00F1B7F2: 0000            ADD     R00,R00         
	00F1B7F4: 0000            ADD     R00,R00         
	00F1B7F6: 0000            ADD     R00,R00         
	00F1B7F8: FFFF            ADDQMOD $1F,R31         
	00F1B7FA: FE80            ADDQMOD $14,R00         
	00F1B7FC: FFFF            ADDQMOD $1F,R31         
	00F1B7FE: FF20            ADDQMOD $19,R00         
	00F1B800: FFFF            ADDQMOD $1F,R31         
	00F1B802: FE80            ADDQMOD $14,R00         
	00F1B804: FFFF            ADDQMOD $1F,R31         
	00F1B806: FE80            ADDQMOD $14,R00         
	00F1B808: 0000            ADD     R00,R00         
	00F1B80A: 0000            ADD     R00,R00         
	00F1B80C: 0000            ADD     R00,R00         
	00F1B80E: 0000            ADD     R00,R00         
	00F1B810: 0000            ADD     R00,R00         
	00F1B812: 0000            ADD     R00,R00         
	00F1B814: 0000            ADD     R00,R00         
	00F1B816: 0000            ADD     R00,R00         
	00F1B818: FFFF            ADDQMOD $1F,R31         
	00F1B81A: FE80            ADDQMOD $14,R00         
	00F1B81C: FFFF            ADDQMOD $1F,R31         
	00F1B81E: FF20            ADDQMOD $19,R00         
	00F1B820: FFFF            ADDQMOD $1F,R31         
	00F1B822: FE80            ADDQMOD $14,R00         
	00F1B824: FFFF            ADDQMOD $1F,R31         
	00F1B826: FE80            ADDQMOD $14,R00         
	00F1B828: 0000            ADD     R00,R00         
	00F1B82A: 0000            ADD     R00,R00         
	00F1B82C: 0000            ADD     R00,R00         
	00F1B82E: 0000            ADD     R00,R00         
	00F1B830: 0000            ADD     R00,R00         
	00F1B832: 0000            ADD     R00,R00         
	00F1B834: 0000            ADD     R00,R00         
	00F1B836: 0000            ADD     R00,R00         
	00F1B838: FFFF            ADDQMOD $1F,R31         
	00F1B83A: FE80            ADDQMOD $14,R00         
	00F1B83C: FFFF            ADDQMOD $1F,R31         
	00F1B83E: FF20            ADDQMOD $19,R00         
	00F1B840: FFFF            ADDQMOD $1F,R31         
	00F1B842: FE80            ADDQMOD $14,R00         
	00F1B844: FFFF            ADDQMOD $1F,R31         
	00F1B846: FE80            ADDQMOD $14,R00         
	00F1B848: 0000            ADD     R00,R00         
	00F1B84A: 0000            ADD     R00,R00         
	00F1B84C: 0000            ADD     R00,R00         
	00F1B84E: 0000            ADD     R00,R00         
	00F1B850: 0000            ADD     R00,R00         
	00F1B852: 0000            ADD     R00,R00         
	00F1B854: 0000            ADD     R00,R00         
	00F1B856: 0000            ADD     R00,R00         
	00F1B858: FFFF            ADDQMOD $1F,R31         
	00F1B85A: FEC0            ADDQMOD $16,R00         
	00F1B85C: FFFF            ADDQMOD $1F,R31         
	00F1B85E: FF30            ADDQMOD $19,R16         
	00F1B860: FFFF            ADDQMOD $1F,R31         
	00F1B862: FEC0            ADDQMOD $16,R00         
	00F1B864: FFFF            ADDQMOD $1F,R31         
	00F1B866: FEC0            ADDQMOD $16,R00         
	00F1B868: 0000            ADD     R00,R00         
	00F1B86A: 0000            ADD     R00,R00         
	00F1B86C: 0000            ADD     R00,R00         
	00F1B86E: 0000            ADD     R00,R00         
	00F1B870: 0000            ADD     R00,R00         
	00F1B872: 0000            ADD     R00,R00         
	00F1B874: 0000            ADD     R00,R00         
	00F1B876: 0000            ADD     R00,R00         
	00F1B878: FFFF            ADDQMOD $1F,R31         
	00F1B87A: FEC0            ADDQMOD $16,R00         
	00F1B87C: FFFF            ADDQMOD $1F,R31         
	00F1B87E: FF30            ADDQMOD $19,R16         
	00F1B880: FFFF            ADDQMOD $1F,R31         
	00F1B882: FEC0            ADDQMOD $16,R00         
	00F1B884: FFFF            ADDQMOD $1F,R31         
	00F1B886: FEC0            ADDQMOD $16,R00         
	00F1B888: 0000            ADD     R00,R00         
	00F1B88A: 0000            ADD     R00,R00         
	00F1B88C: 0000            ADD     R00,R00         
	00F1B88E: 0000            ADD     R00,R00         
	00F1B890: 0000            ADD     R00,R00         
	00F1B892: 0000            ADD     R00,R00         
	00F1B894: 0000            ADD     R00,R00         
	00F1B896: 0000            ADD     R00,R00         
	00F1B898: FFFF            ADDQMOD $1F,R31         
	00F1B89A: FF00            ADDQMOD $18,R00         
	00F1B89C: FFFF            ADDQMOD $1F,R31         
	00F1B89E: FF30            ADDQMOD $19,R16         
	00F1B8A0: FFFF            ADDQMOD $1F,R31         
	00F1B8A2: FF00            ADDQMOD $18,R00         
	00F1B8A4: FFFF            ADDQMOD $1F,R31         
	00F1B8A6: FF00            ADDQMOD $18,R00         
	00F1B8A8: 0000            ADD     R00,R00         
	00F1B8AA: 0000            ADD     R00,R00         
	00F1B8AC: 0000            ADD     R00,R00         
	00F1B8AE: 0000            ADD     R00,R00         
	00F1B8B0: 0000            ADD     R00,R00         
	00F1B8B2: 0000            ADD     R00,R00         
	00F1B8B4: 0000            ADD     R00,R00         
	00F1B8B6: 0000            ADD     R00,R00         
	00F1B8B8: FFFF            ADDQMOD $1F,R31         
	00F1B8BA: FF00            ADDQMOD $18,R00         
	00F1B8BC: FFFF            ADDQMOD $1F,R31         
	00F1B8BE: FF50            ADDQMOD $1A,R16         
	00F1B8C0: FFFF            ADDQMOD $1F,R31         
	00F1B8C2: FF00            ADDQMOD $18,R00         
	00F1B8C4: FFFF            ADDQMOD $1F,R31         
	00F1B8C6: FF00            ADDQMOD $18,R00         
	00F1B8C8: 0000            ADD     R00,R00         
	00F1B8CA: 0000            ADD     R00,R00         
	00F1B8CC: 0000            ADD     R00,R00         
	00F1B8CE: 0000            ADD     R00,R00         
	00F1B8D0: 0000            ADD     R00,R00         
	00F1B8D2: 0000            ADD     R00,R00         
	00F1B8D4: 0000            ADD     R00,R00         
	00F1B8D6: 0000            ADD     R00,R00         
	00F1B8D8: 0000            ADD     R00,R00         
	00F1B8DA: 0000            ADD     R00,R00         
	00F1B8DC: 0000            ADD     R00,R00         
	00F1B8DE: 0000            ADD     R00,R00         
	00F1B8E0: 0000            ADD     R00,R00         
	00F1B8E2: 0000            ADD     R00,R00         
	00F1B8E4: 0000            ADD     R00,R00         
	00F1B8E6: 0000            ADD     R00,R00         
	00F1B8E8: 0000            ADD     R00,R00         
	00F1B8EA: 0000            ADD     R00,R00         
	00F1B8EC: 0000            ADD     R00,R00         
	00F1B8EE: 0000            ADD     R00,R00         
	00F1B8F0: 0000            ADD     R00,R00         
	00F1B8F2: 0000            ADD     R00,R00         
	00F1B8F4: 0000            ADD     R00,R00         
	00F1B8F6: 0000            ADD     R00,R00         
	00F1B8F8: FFFF            ADDQMOD $1F,R31         
	00F1B8FA: FF00            ADDQMOD $18,R00         
	00F1B8FC: FFFF            ADDQMOD $1F,R31         
	00F1B8FE: FF50            ADDQMOD $1A,R16         
	00F1B900: FFFF            ADDQMOD $1F,R31         
	00F1B902: FF00            ADDQMOD $18,R00         
	00F1B904: FFFF            ADDQMOD $1F,R31         
	00F1B906: FF00            ADDQMOD $18,R00         
	00F1B908: 0000            ADD     R00,R00         
	00F1B90A: 0000            ADD     R00,R00         
	00F1B90C: 0000            ADD     R00,R00         
	00F1B90E: 0000            ADD     R00,R00         
	00F1B910: 0000            ADD     R00,R00         
	00F1B912: 0000            ADD     R00,R00         
	00F1B914: 0000            ADD     R00,R00         
	00F1B916: 0000            ADD     R00,R00         
	00F1B918: FFFF            ADDQMOD $1F,R31         
	00F1B91A: FF40            ADDQMOD $1A,R00         
	00F1B91C: FFFF            ADDQMOD $1F,R31         
	00F1B91E: FF80            ADDQMOD $1C,R00         
	00F1B920: FFFF            ADDQMOD $1F,R31         
	00F1B922: FF40            ADDQMOD $1A,R00         
	00F1B924: FFFF            ADDQMOD $1F,R31         
	00F1B926: FF40            ADDQMOD $1A,R00         
	00F1B928: 0000            ADD     R00,R00         
	00F1B92A: 0000            ADD     R00,R00         
	00F1B92C: 0000            ADD     R00,R00         
	00F1B92E: 0000            ADD     R00,R00         
	00F1B930: 0000            ADD     R00,R00         
	00F1B932: 0000            ADD     R00,R00         
	00F1B934: 0000            ADD     R00,R00         
	00F1B936: 0000            ADD     R00,R00         
	00F1B938: FFFF            ADDQMOD $1F,R31         
	00F1B93A: FF40            ADDQMOD $1A,R00         
	00F1B93C: FFFF            ADDQMOD $1F,R31         
	00F1B93E: FF80            ADDQMOD $1C,R00         
	00F1B940: FFFF            ADDQMOD $1F,R31         
	00F1B942: FF40            ADDQMOD $1A,R00         
	00F1B944: FFFF            ADDQMOD $1F,R31         
	00F1B946: FF40            ADDQMOD $1A,R00         
	00F1B948: 0000            ADD     R00,R00         
	00F1B94A: 0000            ADD     R00,R00         
	00F1B94C: 0000            ADD     R00,R00         
	00F1B94E: 0000            ADD     R00,R00         
	00F1B950: 0000            ADD     R00,R00         
	00F1B952: 0000            ADD     R00,R00         
	00F1B954: 0000            ADD     R00,R00         
	00F1B956: 0000            ADD     R00,R00         
	00F1B958: FFFF            ADDQMOD $1F,R31         
	00F1B95A: FF80            ADDQMOD $1C,R00         
	00F1B95C: FFFF            ADDQMOD $1F,R31         
	00F1B95E: FFB0            ADDQMOD $1D,R16         
	00F1B960: FFFF            ADDQMOD $1F,R31         
	00F1B962: FF80            ADDQMOD $1C,R00         
	00F1B964: FFFF            ADDQMOD $1F,R31         
	00F1B966: FF80            ADDQMOD $1C,R00         
	00F1B968: 0000            ADD     R00,R00         
	00F1B96A: 0000            ADD     R00,R00         
	00F1B96C: 0000            ADD     R00,R00         
	00F1B96E: 0000            ADD     R00,R00         
	00F1B970: 0000            ADD     R00,R00         
	00F1B972: 0000            ADD     R00,R00         
	00F1B974: 0000            ADD     R00,R00         
	00F1B976: 0000            ADD     R00,R00         
	00F1B978: FFFF            ADDQMOD $1F,R31         
	00F1B97A: FF80            ADDQMOD $1C,R00         
	00F1B97C: FFFF            ADDQMOD $1F,R31         
	00F1B97E: FFB0            ADDQMOD $1D,R16         
	00F1B980: FFFF            ADDQMOD $1F,R31         
	00F1B982: FF80            ADDQMOD $1C,R00         
	00F1B984: FFFF            ADDQMOD $1F,R31         
	00F1B986: FF80            ADDQMOD $1C,R00         
	00F1B988: 0000            ADD     R00,R00         
	00F1B98A: 0000            ADD     R00,R00         
	00F1B98C: 0000            ADD     R00,R00         
	00F1B98E: 0000            ADD     R00,R00         
	00F1B990: 0000            ADD     R00,R00         
	00F1B992: 0000            ADD     R00,R00         
	00F1B994: 0000            ADD     R00,R00         
	00F1B996: 0000            ADD     R00,R00         
	00F1B998: FFFF            ADDQMOD $1F,R31         
	00F1B99A: FF80            ADDQMOD $1C,R00         
	00F1B99C: FFFF            ADDQMOD $1F,R31         
	00F1B99E: FFB0            ADDQMOD $1D,R16         
	00F1B9A0: FFFF            ADDQMOD $1F,R31         
	00F1B9A2: FF80            ADDQMOD $1C,R00         
	00F1B9A4: FFFF            ADDQMOD $1F,R31         
	00F1B9A6: FF80            ADDQMOD $1C,R00         
	00F1B9A8: 0000            ADD     R00,R00         
	00F1B9AA: 0000            ADD     R00,R00         
	00F1B9AC: 0000            ADD     R00,R00         
	00F1B9AE: 0000            ADD     R00,R00         
	00F1B9B0: 0000            ADD     R00,R00         
	00F1B9B2: 0000            ADD     R00,R00         
	00F1B9B4: 0000            ADD     R00,R00         
	00F1B9B6: 0000            ADD     R00,R00         
	00F1B9B8: FFFF            ADDQMOD $1F,R31         
	00F1B9BA: FFC0            ADDQMOD $1E,R00         
	00F1B9BC: FFFF            ADDQMOD $1F,R31         
	00F1B9BE: FFE0            ADDQMOD $1F,R00         
	00F1B9C0: FFFF            ADDQMOD $1F,R31         
	00F1B9C2: FFC0            ADDQMOD $1E,R00         
	00F1B9C4: FFFF            ADDQMOD $1F,R31         
	00F1B9C6: FFC0            ADDQMOD $1E,R00         
	00F1B9C8: 0000            ADD     R00,R00         
	00F1B9CA: 0000            ADD     R00,R00         
	00F1B9CC: 0000            ADD     R00,R00         
	00F1B9CE: 0000            ADD     R00,R00         
	00F1B9D0: 0000            ADD     R00,R00         
	00F1B9D2: 0000            ADD     R00,R00         
	00F1B9D4: 0000            ADD     R00,R00         
	00F1B9D6: 0000            ADD     R00,R00         
	00F1B9D8: FFFF            ADDQMOD $1F,R31         
	00F1B9DA: FFC0            ADDQMOD $1E,R00         
	00F1B9DC: FFFF            ADDQMOD $1F,R31         
	00F1B9DE: FFE0            ADDQMOD $1F,R00         
	00F1B9E0: FFFF            ADDQMOD $1F,R31         
	00F1B9E2: FFC0            ADDQMOD $1E,R00         
	00F1B9E4: FFFF            ADDQMOD $1F,R31         
	00F1B9E6: FFC0            ADDQMOD $1E,R00         
	00F1B9E8: 0000            ADD     R00,R00         
	00F1B9EA: 0000            ADD     R00,R00         
	00F1B9EC: 0000            ADD     R00,R00         
	00F1B9EE: 0000            ADD     R00,R00         
	00F1B9F0: 0000            ADD     R00,R00         
	00F1B9F2: 0000            ADD     R00,R00         
	00F1B9F4: 0000            ADD     R00,R00         
	00F1B9F6: 0000            ADD     R00,R00         
	00F1B9F8: FFFF            ADDQMOD $1F,R31         
	00F1B9FA: FF80            ADDQMOD $1C,R00         
	00F1B9FC: FFFF            ADDQMOD $1F,R31         
	00F1B9FE: FFE0            ADDQMOD $1F,R00         
	00F1BA00: FFFF            ADDQMOD $1F,R31         
	00F1BA02: FF80            ADDQMOD $1C,R00         
	00F1BA04: FFFF            ADDQMOD $1F,R31         
	00F1BA06: FF80            ADDQMOD $1C,R00         
	00F1BA08: 0000            ADD     R00,R00         
	00F1BA0A: 0000            ADD     R00,R00         
	00F1BA0C: 0000            ADD     R00,R00         
	00F1BA0E: 0000            ADD     R00,R00         
	00F1BA10: 0000            ADD     R00,R00         
	00F1BA12: 0000            ADD     R00,R00         
	00F1BA14: 0000            ADD     R00,R00         
	00F1BA16: 0000            ADD     R00,R00         
	00F1BA18: FFFF            ADDQMOD $1F,R31         
	00F1BA1A: FF80            ADDQMOD $1C,R00         
	00F1BA1C: FFFF            ADDQMOD $1F,R31         
	00F1BA1E: FFE0            ADDQMOD $1F,R00         
	00F1BA20: FFFF            ADDQMOD $1F,R31         
	00F1BA22: FF80            ADDQMOD $1C,R00         
	00F1BA24: FFFF            ADDQMOD $1F,R31         
	00F1BA26: FF80            ADDQMOD $1C,R00         
	00F1BA28: 0000            ADD     R00,R00         
	00F1BA2A: 0000            ADD     R00,R00         
	00F1BA2C: 0000            ADD     R00,R00         
	00F1BA2E: 0000            ADD     R00,R00         
	00F1BA30: 0000            ADD     R00,R00         
	00F1BA32: 0000            ADD     R00,R00         
	00F1BA34: 0000            ADD     R00,R00         
	00F1BA36: 0000            ADD     R00,R00         
	00F1BA38: FFFF            ADDQMOD $1F,R31         
	00F1BA3A: FF40            ADDQMOD $1A,R00         
	00F1BA3C: FFFF            ADDQMOD $1F,R31         
	00F1BA3E: FFD0            ADDQMOD $1E,R16         
	00F1BA40: FFFF            ADDQMOD $1F,R31         
	00F1BA42: FF40            ADDQMOD $1A,R00         
	00F1BA44: FFFF            ADDQMOD $1F,R31         
	00F1BA46: FF40            ADDQMOD $1A,R00         
	00F1BA48: 0000            ADD     R00,R00         
	00F1BA4A: 0000            ADD     R00,R00         
	00F1BA4C: 0000            ADD     R00,R00         
	00F1BA4E: 0000            ADD     R00,R00         
	00F1BA50: 0000            ADD     R00,R00         
	00F1BA52: 0000            ADD     R00,R00         
	00F1BA54: 0000            ADD     R00,R00         
	00F1BA56: 0000            ADD     R00,R00         
	00F1BA58: FFFF            ADDQMOD $1F,R31         
	00F1BA5A: FF40            ADDQMOD $1A,R00         
	00F1BA5C: FFFF            ADDQMOD $1F,R31         
	00F1BA5E: FFD0            ADDQMOD $1E,R16         
	00F1BA60: FFFF            ADDQMOD $1F,R31         
	00F1BA62: FF40            ADDQMOD $1A,R00         
	00F1BA64: FFFF            ADDQMOD $1F,R31         
	00F1BA66: FF40            ADDQMOD $1A,R00         
	00F1BA68: 0000            ADD     R00,R00         
	00F1BA6A: 0000            ADD     R00,R00         
	00F1BA6C: 0000            ADD     R00,R00         
	00F1BA6E: 0000            ADD     R00,R00         
	00F1BA70: 0000            ADD     R00,R00         
	00F1BA72: 0000            ADD     R00,R00         
	00F1BA74: 0000            ADD     R00,R00         
	00F1BA76: 0000            ADD     R00,R00         
	00F1BA78: FFFF            ADDQMOD $1F,R31         
	00F1BA7A: FF40            ADDQMOD $1A,R00         
	00F1BA7C: FFFF            ADDQMOD $1F,R31         
	00F1BA7E: FFD0            ADDQMOD $1E,R16         
	00F1BA80: FFFF            ADDQMOD $1F,R31         
	00F1BA82: FF40            ADDQMOD $1A,R00         
	00F1BA84: FFFF            ADDQMOD $1F,R31         
	00F1BA86: FF40            ADDQMOD $1A,R00         
	00F1BA88: 0000            ADD     R00,R00         
	00F1BA8A: 0000            ADD     R00,R00         
	00F1BA8C: 0000            ADD     R00,R00         
	00F1BA8E: 0000            ADD     R00,R00         
	00F1BA90: 0000            ADD     R00,R00         
	00F1BA92: 0000            ADD     R00,R00         
	00F1BA94: 0000            ADD     R00,R00         
	00F1BA96: 0000            ADD     R00,R00         
	00F1BA98: FFFF            ADDQMOD $1F,R31         
	00F1BA9A: FF00            ADDQMOD $18,R00         
	00F1BA9C: FFFF            ADDQMOD $1F,R31         
	00F1BA9E: FFC0            ADDQMOD $1E,R00         
	00F1BAA0: FFFF            ADDQMOD $1F,R31         
	00F1BAA2: FF00            ADDQMOD $18,R00         
	00F1BAA4: FFFF            ADDQMOD $1F,R31         
	00F1BAA6: FF00            ADDQMOD $18,R00         
	00F1BAA8: 0000            ADD     R00,R00         
	00F1BAAA: 0000            ADD     R00,R00         
	00F1BAAC: 0000            ADD     R00,R00         
	00F1BAAE: 0000            ADD     R00,R00         
	00F1BAB0: 0000            ADD     R00,R00         
	00F1BAB2: 0000            ADD     R00,R00         
	00F1BAB4: 0000            ADD     R00,R00         
	00F1BAB6: 0000            ADD     R00,R00         
	00F1BAB8: FFFF            ADDQMOD $1F,R31         
	00F1BABA: FF00            ADDQMOD $18,R00         
	00F1BABC: FFFF            ADDQMOD $1F,R31         
	00F1BABE: FFC0            ADDQMOD $1E,R00         
	00F1BAC0: FFFF            ADDQMOD $1F,R31         
	00F1BAC2: FF00            ADDQMOD $18,R00         
	00F1BAC4: FFFF            ADDQMOD $1F,R31         
	00F1BAC6: FF00            ADDQMOD $18,R00         
	00F1BAC8: 0000            ADD     R00,R00         
	00F1BACA: 0000            ADD     R00,R00         
	00F1BACC: 0000            ADD     R00,R00         
	00F1BACE: 0000            ADD     R00,R00         
	00F1BAD0: 0000            ADD     R00,R00         
	00F1BAD2: 0000            ADD     R00,R00         
	00F1BAD4: 0000            ADD     R00,R00         
	00F1BAD6: 0000            ADD     R00,R00         
	00F1BAD8: FFFF            ADDQMOD $1F,R31         
	00F1BADA: FEC0            ADDQMOD $16,R00         
	00F1BADC: FFFF            ADDQMOD $1F,R31         
	00F1BADE: FFB0            ADDQMOD $1D,R16         
	00F1BAE0: FFFF            ADDQMOD $1F,R31         
	00F1BAE2: FEC0            ADDQMOD $16,R00         
	00F1BAE4: FFFF            ADDQMOD $1F,R31         
	00F1BAE6: FEC0            ADDQMOD $16,R00         
	00F1BAE8: 0000            ADD     R00,R00         
	00F1BAEA: 0000            ADD     R00,R00         
	00F1BAEC: 0000            ADD     R00,R00         
	00F1BAEE: 0000            ADD     R00,R00         
	00F1BAF0: 0000            ADD     R00,R00         
	00F1BAF2: 0000            ADD     R00,R00         
	00F1BAF4: 0000            ADD     R00,R00         
	00F1BAF6: 0000            ADD     R00,R00         
	00F1BAF8: FFFF            ADDQMOD $1F,R31         
	00F1BAFA: FEC0            ADDQMOD $16,R00         
	00F1BAFC: FFFF            ADDQMOD $1F,R31         
	00F1BAFE: FFB0            ADDQMOD $1D,R16         
	00F1BB00: FFFF            ADDQMOD $1F,R31         
	00F1BB02: FEC0            ADDQMOD $16,R00         
	00F1BB04: FFFF            ADDQMOD $1F,R31         
	00F1BB06: FEC0            ADDQMOD $16,R00         
	00F1BB08: 0000            ADD     R00,R00         
	00F1BB0A: 0000            ADD     R00,R00         
	00F1BB0C: 0000            ADD     R00,R00         
	00F1BB0E: 0000            ADD     R00,R00         
	00F1BB10: 0000            ADD     R00,R00         
	00F1BB12: 0000            ADD     R00,R00         
	00F1BB14: 0000            ADD     R00,R00         
	00F1BB16: 0000            ADD     R00,R00         
	00F1BB18: FFFF            ADDQMOD $1F,R31         
	00F1BB1A: FEC0            ADDQMOD $16,R00         
	00F1BB1C: FFFF            ADDQMOD $1F,R31         
	00F1BB1E: FFB0            ADDQMOD $1D,R16         
	00F1BB20: FFFF            ADDQMOD $1F,R31         
	00F1BB22: FEC0            ADDQMOD $16,R00         
	00F1BB24: FFFF            ADDQMOD $1F,R31         
	00F1BB26: FEC0            ADDQMOD $16,R00         
	00F1BB28: 0000            ADD     R00,R00         
	00F1BB2A: 0000            ADD     R00,R00         
	00F1BB2C: 0000            ADD     R00,R00         
	00F1BB2E: 0000            ADD     R00,R00         
	00F1BB30: 0000            ADD     R00,R00         
	00F1BB32: 0000            ADD     R00,R00         
	00F1BB34: 0000            ADD     R00,R00         
	00F1BB36: 0000            ADD     R00,R00         
	00F1BB38: FFFF            ADDQMOD $1F,R31         
	00F1BB3A: FEC0            ADDQMOD $16,R00         
	00F1BB3C: FFFF            ADDQMOD $1F,R31         
	00F1BB3E: FFB0            ADDQMOD $1D,R16         
	00F1BB40: FFFF            ADDQMOD $1F,R31         
	00F1BB42: FEC0            ADDQMOD $16,R00         
	00F1BB44: FFFF            ADDQMOD $1F,R31         
	00F1BB46: FEC0            ADDQMOD $16,R00         
	00F1BB48: 0000            ADD     R00,R00         
	00F1BB4A: 0000            ADD     R00,R00         
	00F1BB4C: 0000            ADD     R00,R00         
	00F1BB4E: 0000            ADD     R00,R00         
	00F1BB50: 0000            ADD     R00,R00         
	00F1BB52: 0000            ADD     R00,R00         
	00F1BB54: 0000            ADD     R00,R00         
	00F1BB56: 0000            ADD     R00,R00         
	00F1BB58: FFFF            ADDQMOD $1F,R31         
	00F1BB5A: FEC0            ADDQMOD $16,R00         
	00F1BB5C: FFFF            ADDQMOD $1F,R31         
	00F1BB5E: FFB0            ADDQMOD $1D,R16         
	00F1BB60: FFFF            ADDQMOD $1F,R31         
	00F1BB62: FEC0            ADDQMOD $16,R00         
	00F1BB64: FFFF            ADDQMOD $1F,R31         
	00F1BB66: FEC0            ADDQMOD $16,R00         
	00F1BB68: 0000            ADD     R00,R00         
	00F1BB6A: 0000            ADD     R00,R00         
	00F1BB6C: 0000            ADD     R00,R00         
	00F1BB6E: 0000            ADD     R00,R00         
	00F1BB70: 0000            ADD     R00,R00         
	00F1BB72: 0000            ADD     R00,R00         
	00F1BB74: 0000            ADD     R00,R00         
	00F1BB76: 0000            ADD     R00,R00         
	00F1BB78: FFFF            ADDQMOD $1F,R31         
	00F1BB7A: FE80            ADDQMOD $14,R00         
	00F1BB7C: FFFF            ADDQMOD $1F,R31         
	00F1BB7E: FFB0            ADDQMOD $1D,R16         
	00F1BB80: FFFF            ADDQMOD $1F,R31         
	00F1BB82: FE80            ADDQMOD $14,R00         
	00F1BB84: FFFF            ADDQMOD $1F,R31         
	00F1BB86: FE80            ADDQMOD $14,R00         
	00F1BB88: 0000            ADD     R00,R00         
	00F1BB8A: 0000            ADD     R00,R00         
	00F1BB8C: 0000            ADD     R00,R00         
	00F1BB8E: 0000            ADD     R00,R00         
	00F1BB90: 0000            ADD     R00,R00         
	00F1BB92: 0000            ADD     R00,R00         
	00F1BB94: 0000            ADD     R00,R00         
	00F1BB96: 0000            ADD     R00,R00         
	00F1BB98: FFFF            ADDQMOD $1F,R31         
	00F1BB9A: FE80            ADDQMOD $14,R00         
	00F1BB9C: FFFF            ADDQMOD $1F,R31         
	00F1BB9E: FFB0            ADDQMOD $1D,R16         
	00F1BBA0: FFFF            ADDQMOD $1F,R31         
	00F1BBA2: FE80            ADDQMOD $14,R00         
	00F1BBA4: FFFF            ADDQMOD $1F,R31         
	00F1BBA6: FE80            ADDQMOD $14,R00         
	00F1BBA8: 0000            ADD     R00,R00         
	00F1BBAA: 0000            ADD     R00,R00         
	00F1BBAC: 0000            ADD     R00,R00         
	00F1BBAE: 0000            ADD     R00,R00         
	00F1BBB0: 0000            ADD     R00,R00         
	00F1BBB2: 0000            ADD     R00,R00         
	00F1BBB4: 0000            ADD     R00,R00         
	00F1BBB6: 0000            ADD     R00,R00         
	00F1BBB8: FFFF            ADDQMOD $1F,R31         
	00F1BBBA: FE80            ADDQMOD $14,R00         
	00F1BBBC: FFFF            ADDQMOD $1F,R31         
	00F1BBBE: FFB0            ADDQMOD $1D,R16         
	00F1BBC0: FFFF            ADDQMOD $1F,R31         
	00F1BBC2: FE80            ADDQMOD $14,R00         
	00F1BBC4: FFFF            ADDQMOD $1F,R31         
	00F1BBC6: FE80            ADDQMOD $14,R00         
	00F1BBC8: 0000            ADD     R00,R00         
	00F1BBCA: 0000            ADD     R00,R00         
	00F1BBCC: 0000            ADD     R00,R00         
	00F1BBCE: 0000            ADD     R00,R00         
	00F1BBD0: 0000            ADD     R00,R00         
	00F1BBD2: 0000            ADD     R00,R00         
	00F1BBD4: 0000            ADD     R00,R00         
	00F1BBD6: 0000            ADD     R00,R00         
	00F1BBD8: FFFF            ADDQMOD $1F,R31         
	00F1BBDA: FE80            ADDQMOD $14,R00         
	00F1BBDC: FFFF            ADDQMOD $1F,R31         
	00F1BBDE: FFB0            ADDQMOD $1D,R16         
	00F1BBE0: FFFF            ADDQMOD $1F,R31         
	00F1BBE2: FE80            ADDQMOD $14,R00         
	00F1BBE4: FFFF            ADDQMOD $1F,R31         
	00F1BBE6: FE80            ADDQMOD $14,R00         
	00F1BBE8: 0000            ADD     R00,R00         
	00F1BBEA: 0000            ADD     R00,R00         
	00F1BBEC: 0000            ADD     R00,R00         
	00F1BBEE: 0000            ADD     R00,R00         
	00F1BBF0: 0000            ADD     R00,R00         
	00F1BBF2: 0000            ADD     R00,R00         
	00F1BBF4: 0000            ADD     R00,R00         
	00F1BBF6: 0000            ADD     R00,R00         
	00F1BBF8: 0000            ADD     R00,R00         
	00F1BBFA: 0000            ADD     R00,R00         
	00F1BBFC: 0000            ADD     R00,R00         
	00F1BBFE: 0000            ADD     R00,R00         
	00F1BC00: 0000            ADD     R00,R00         
	00F1BC02: 0000            ADD     R00,R00         
	00F1BC04: 0000            ADD     R00,R00         
	00F1BC06: 0000            ADD     R00,R00         
	00F1BC08: 0000            ADD     R00,R00         
	00F1BC0A: 0000            ADD     R00,R00         
	00F1BC0C: 0000            ADD     R00,R00         
	00F1BC0E: 0000            ADD     R00,R00         
	00F1BC10: 0000            ADD     R00,R00         
	00F1BC12: 0000            ADD     R00,R00         
	00F1BC14: 0000            ADD     R00,R00         
	00F1BC16: 0000            ADD     R00,R00         
	00F1BC18: 0000            ADD     R00,R00         
	00F1BC1A: 0000            ADD     R00,R00         
	00F1BC1C: 0000            ADD     R00,R00         
	00F1BC1E: 0000            ADD     R00,R00         
	00F1BC20: 0000            ADD     R00,R00         
	00F1BC22: 0000            ADD     R00,R00         
	00F1BC24: 0000            ADD     R00,R00         
	00F1BC26: 0000            ADD     R00,R00         
	00F1BC28: 0000            ADD     R00,R00         
	00F1BC2A: 0000            ADD     R00,R00         
	00F1BC2C: 0000            ADD     R00,R00         
	00F1BC2E: 0000            ADD     R00,R00         
	00F1BC30: 0000            ADD     R00,R00         
	00F1BC32: 0000            ADD     R00,R00         
	00F1BC34: 00F1            ADD     R07,R17         
	00F1BC36: C7DA            STORE   R26,(R14+$78)   
	00F1BC38: 00F1            ADD     R07,R17         
	00F1BC3A: C458            STORE   R24,(R14+$8)    
	00F1BC3C: 00F1            ADD     R07,R17         
	00F1BC3E: C060            MIRROR  R00             
	00F1BC40: 0000            ADD     R00,R00         
	00F1BC42: 0000            ADD     R00,R00         
	00F1BC44: 00F1            ADD     R07,R17         
	00F1BC46: B718            STOREB  R24,(R24)       
	00F1BC48: 00F1            ADD     R07,R17         
	00F1BC4A: B8F8            STOREW  R24,(R07)       
	00F1BC4C: 0000            ADD     R00,R00         
	00F1BC4E: 000E            ADD     R00,R14         
	00F1BC50: 0000            ADD     R00,R00         
	00F1BC52: 0001            ADD     R00,R01         
	00F1BC54: FFFF            ADDQMOD $1F,R31         
	00F1BC56: FD0C            ADDQMOD $8,R12          
	00F1BC58: FFFF            ADDQMOD $1F,R31         
	00F1BC5A: FE17            ADDQMOD $10,R23         
	00F1BC5C: 0000            ADD     R00,R00         
	00F1BC5E: 0001            ADD     R00,R01         
	00F1BC60: 0030            ADD     R01,R16         
	00F1BC62: 0015            ADD     R00,R21         
	00F1BC64: 0000            ADD     R00,R00         
	00F1BC66: 0195            ADD     R12,R21         
	00F1BC68: 0000            ADD     R00,R00         
	00F1BC6A: 000F            ADD     R00,R15         
	00F1BC6C: 0017            ADD     R00,R23         
	00F1BC6E: EF2F            LOAD    (R15+R25),R15   
	00F1BC70: 0018            ADD     R00,R24         
	00F1BC72: 0908            ADDQ    $8,R08          
	00F1BC74: 0017            ADD     R00,R23         
	00F1BC76: 8F20            MOVEQ   25,R00          
	00F1BC78: 0000            ADD     R00,R00         
	00F1BC7A: 0000            ADD     R00,R00         
	00F1BC7C: 0000            ADD     R00,R00         
	00F1BC7E: 06C7            ADDC    R22,R07         
	00F1BC80: 0000            ADD     R00,R00         
	00F1BC82: 0978            ADDQ    $B,R24          
	00F1BC84: 0000            ADD     R00,R00         
	00F1BC86: 0005            ADD     R00,R05         
	00F1BC88: 0000            ADD     R00,R00         
	00F1BC8A: 4040            MULT    R02,R00         
	00F1BC8C: 0017            ADD     R00,R23         
	00F1BC8E: E96D            LOAD    (R14+R11),R13   
	00F1BC90: 0018            ADD     R00,R24         
	00F1BC92: 0908            ADDQ    $8,R08          
	00F1BC94: 0017            ADD     R00,R23         
	00F1BC96: 8F20            MOVEQ   25,R00          
	00F1BC98: 0000            ADD     R00,R00         
	00F1BC9A: 0000            ADD     R00,R00         
	00F1BC9C: 0000            ADD     R00,R00         
	00F1BC9E: 06C7            ADDC    R22,R07         
	00F1BCA0: 0000            ADD     R00,R00         
	00F1BCA2: 0850            ADDQ    $2,R16          
	00F1BCA4: 0000            ADD     R00,R00         
	00F1BCA6: 0005            ADD     R00,R05         
	00F1BCA8: 0000            ADD     R00,R00         
	00F1BCAA: 4010            MULT    R00,R16         
	00F1BCAC: 0017            ADD     R00,R23         
	00F1BCAE: EF2F            LOAD    (R15+R25),R15   
	00F1BCB0: 0018            ADD     R00,R24         
	00F1BCB2: 0908            ADDQ    $8,R08          
	00F1BCB4: 0017            ADD     R00,R23         
	00F1BCB6: 8F20            MOVEQ   25,R00          
	00F1BCB8: 0000            ADD     R00,R00         
	00F1BCBA: 0000            ADD     R00,R00         
	00F1BCBC: 0000            ADD     R00,R00         
	00F1BCBE: 06C7            ADDC    R22,R07         
	00F1BCC0: 0000            ADD     R00,R00         
	00F1BCC2: 0978            ADDQ    $B,R24          
	00F1BCC4: 0000            ADD     R00,R00         
	00F1BCC6: 0005            ADD     R00,R05         
	00F1BCC8: 0000            ADD     R00,R00         
	00F1BCCA: 4040            MULT    R02,R00         
	00F1BCCC: 0017            ADD     R00,R23         
	00F1BCCE: EF2F            LOAD    (R15+R25),R15   
	00F1BCD0: 0018            ADD     R00,R24         
	00F1BCD2: 0908            ADDQ    $8,R08          
	00F1BCD4: 0017            ADD     R00,R23         
	00F1BCD6: 8F20            MOVEQ   25,R00          
	00F1BCD8: 0000            ADD     R00,R00         
	00F1BCDA: 0000            ADD     R00,R00         
	00F1BCDC: 0000            ADD     R00,R00         
	00F1BCDE: 06C7            ADDC    R22,R07         
	00F1BCE0: 0000            ADD     R00,R00         
	00F1BCE2: 0978            ADDQ    $B,R24          
	00F1BCE4: 0000            ADD     R00,R00         
	00F1BCE6: 0005            ADD     R00,R05         
	00F1BCE8: 0000            ADD     R00,R00         
	00F1BCEA: 4040            MULT    R02,R00         
	00F1BCEC: 0000            ADD     R00,R00         
	00F1BCEE: 0000            ADD     R00,R00         
	00F1BCF0: 0000            ADD     R00,R00         
	00F1BCF2: 0000            ADD     R00,R00         
	00F1BCF4: 0000            ADD     R00,R00         
	00F1BCF6: 0000            ADD     R00,R00         
	00F1BCF8: 0000            ADD     R00,R00         
	00F1BCFA: 0000            ADD     R00,R00         
	00F1BCFC: 0000            ADD     R00,R00         
	00F1BCFE: 0000            ADD     R00,R00         
	00F1BD00: 0000            ADD     R00,R00         
	00F1BD02: 0000            ADD     R00,R00         
	00F1BD04: 0000            ADD     R00,R00         
	00F1BD06: 0000            ADD     R00,R00         
	00F1BD08: 0000            ADD     R00,R00         
	00F1BD0A: 0000            ADD     R00,R00         
	00F1BD0C: 0000            ADD     R00,R00         
	00F1BD0E: 0000            ADD     R00,R00         
	00F1BD10: 0000            ADD     R00,R00         
	00F1BD12: 0000            ADD     R00,R00         
	00F1BD14: 0000            ADD     R00,R00         
	00F1BD16: 0000            ADD     R00,R00         
	00F1BD18: 0000            ADD     R00,R00         
	00F1BD1A: 0000            ADD     R00,R00         
	00F1BD1C: 0000            ADD     R00,R00         
	00F1BD1E: 0000            ADD     R00,R00         
	00F1BD20: 0000            ADD     R00,R00         
	00F1BD22: 0000            ADD     R00,R00         
	00F1BD24: 0000            ADD     R00,R00         
	00F1BD26: 0000            ADD     R00,R00         
	00F1BD28: 0000            ADD     R00,R00         
	00F1BD2A: 0000            ADD     R00,R00         
	00F1BD2C: 0000            ADD     R00,R00         
	00F1BD2E: 0000            ADD     R00,R00         
	00F1BD30: 0000            ADD     R00,R00         
	00F1BD32: 0000            ADD     R00,R00         
	00F1BD34: 0000            ADD     R00,R00         
	00F1BD36: 0000            ADD     R00,R00         
	00F1BD38: 0000            ADD     R00,R00         
	00F1BD3A: 0000            ADD     R00,R00         
	00F1BD3C: 0000            ADD     R00,R00         
	00F1BD3E: 0000            ADD     R00,R00         
	00F1BD40: 0000            ADD     R00,R00         
	00F1BD42: 0000            ADD     R00,R00         
	00F1BD44: 0000            ADD     R00,R00         
	00F1BD46: 0000            ADD     R00,R00         
	00F1BD48: 0000            ADD     R00,R00         
	00F1BD4A: 0000            ADD     R00,R00         
	00F1BD4C: 0000            ADD     R00,R00         
	00F1BD4E: 0000            ADD     R00,R00         
	00F1BD50: 0000            ADD     R00,R00         
	00F1BD52: 0000            ADD     R00,R00         
	00F1BD54: 0000            ADD     R00,R00         
	00F1BD56: 0000            ADD     R00,R00         
	00F1BD58: 0000            ADD     R00,R00         
	00F1BD5A: 0000            ADD     R00,R00         
	00F1BD5C: 0000            ADD     R00,R00         
	00F1BD5E: 0000            ADD     R00,R00         
	00F1BD60: 0000            ADD     R00,R00         
	00F1BD62: 0000            ADD     R00,R00         
	00F1BD64: 0000            ADD     R00,R00         
	00F1BD66: 0000            ADD     R00,R00         
	00F1BD68: 0000            ADD     R00,R00         
	00F1BD6A: 0000            ADD     R00,R00         
	00F1BD6C: 0017            ADD     R00,R23         
	00F1BD6E: EF20            LOAD    (R15+R25),R00   
	00F1BD70: FAFA            illegal [23,26]         
	00F1BD72: FAFA            illegal [23,26]         
	00F1BD74: FBFC            illegal [31,28]         
	00F1BD76: FDFE            ADDQMOD $F,R30          
	00F1BD78: FFFE            ADDQMOD $1F,R30         
	00F1BD7A: FDFC            ADDQMOD $F,R28          
	00F1BD7C: FBFB            illegal [31,27]         
	00F1BD7E: FAFA            illegal [23,26]         
	00F1BD80: FAFA            illegal [23,26]         
	00F1BD82: FAFA            illegal [23,26]         
	00F1BD84: FAFA            illegal [23,26]         
	00F1BD86: FAFA            illegal [23,26]         
	00F1BD88: FAFB            illegal [23,27]         
	00F1BD8A: FCFD            ADDQMOD $7,R29          
	00F1BD8C: FEFE            ADDQMOD $17,R30         
	00F1BD8E: FEFE            ADDQMOD $17,R30         
	00F1BD90: 0017            ADD     R00,R23         
	00F1BD92: E960            LOAD    (R14+R11),R00   
	00F1BD94: F2F2            STORE   R18,(R14+R23)   
	00F1BD96: F3F5            STORE   R21,(R14+R31)   
	00F1BD98: F8FB            illegal [7,27]          
	00F1BD9A: FEFE            ADDQMOD $17,R30         
	00F1BD9C: FDFC            ADDQMOD $F,R28          
	00F1BD9E: FBFB            illegal [31,27]         
	00F1BDA0: FBFB            illegal [31,27]         
	00F1BDA2: FBFC            illegal [31,28]         
	00F1BDA4: FDFC            ADDQMOD $F,R28          
	00F1BDA6: FBFA            illegal [31,26]         
	00F1BDA8: FAFA            illegal [23,26]         
	00F1BDAA: FCFE            ADDQMOD $7,R30          
	00F1BDAC: 0001            ADD     R00,R01         
	00F1BDAE: 0101            ADD     R08,R01         
	00F1BDB0: 00FF            ADD     R07,R31         
	00F1BDB2: FEFE            ADDQMOD $17,R30         
	00F1BDB4: 0017            ADD     R00,R23         
	00F1BDB6: EF20            LOAD    (R15+R25),R00   
	00F1BDB8: FAFA            illegal [23,26]         
	00F1BDBA: FAFA            illegal [23,26]         
	00F1BDBC: FBFC            illegal [31,28]         
	00F1BDBE: FDFE            ADDQMOD $F,R30          
	00F1BDC0: FFFE            ADDQMOD $1F,R30         
	00F1BDC2: FDFC            ADDQMOD $F,R28          
	00F1BDC4: FBFB            illegal [31,27]         
	00F1BDC6: FAFA            illegal [23,26]         
	00F1BDC8: FAFA            illegal [23,26]         
	00F1BDCA: FAFA            illegal [23,26]         
	00F1BDCC: FAFA            illegal [23,26]         
	00F1BDCE: FAFA            illegal [23,26]         
	00F1BDD0: FAFB            illegal [23,27]         
	00F1BDD2: FCFD            ADDQMOD $7,R29          
	00F1BDD4: FEFE            ADDQMOD $17,R30         
	00F1BDD6: FEFE            ADDQMOD $17,R30         
	00F1BDD8: 0017            ADD     R00,R23         
	00F1BDDA: EF20            LOAD    (R15+R25),R00   
	00F1BDDC: FAFA            illegal [23,26]         
	00F1BDDE: FAFA            illegal [23,26]         
	00F1BDE0: FBFC            illegal [31,28]         
	00F1BDE2: FDFE            ADDQMOD $F,R30          
	00F1BDE4: FFFE            ADDQMOD $1F,R30         
	00F1BDE6: FDFC            ADDQMOD $F,R28          
	00F1BDE8: FBFB            illegal [31,27]         
	00F1BDEA: FAFA            illegal [23,26]         
	00F1BDEC: FAFA            illegal [23,26]         
	00F1BDEE: FAFA            illegal [23,26]         
	00F1BDF0: FAFA            illegal [23,26]         
	00F1BDF2: FAFA            illegal [23,26]         
	00F1BDF4: FAFB            illegal [23,27]         
	00F1BDF6: FCFD            ADDQMOD $7,R29          
	00F1BDF8: FEFE            ADDQMOD $17,R30         
	00F1BDFA: FEFE            ADDQMOD $17,R30         
	00F1BDFC: 0000            ADD     R00,R00         
	00F1BDFE: 0000            ADD     R00,R00         
	00F1BE00: 0000            ADD     R00,R00         
	00F1BE02: 0000            ADD     R00,R00         
	00F1BE04: 0000            ADD     R00,R00         
	00F1BE06: 0000            ADD     R00,R00         
	00F1BE08: 0000            ADD     R00,R00         
	00F1BE0A: 0000            ADD     R00,R00         
	00F1BE0C: 0000            ADD     R00,R00         
	00F1BE0E: 0000            ADD     R00,R00         
	00F1BE10: 0000            ADD     R00,R00         
	00F1BE12: 0000            ADD     R00,R00         
	00F1BE14: 0000            ADD     R00,R00         
	00F1BE16: 0000            ADD     R00,R00         
	00F1BE18: 0000            ADD     R00,R00         
	00F1BE1A: 0000            ADD     R00,R00         
	00F1BE1C: 0000            ADD     R00,R00         
	00F1BE1E: 0000            ADD     R00,R00         
	00F1BE20: 0000            ADD     R00,R00         
	00F1BE22: 0000            ADD     R00,R00         
	00F1BE24: 0000            ADD     R00,R00         
	00F1BE26: 0000            ADD     R00,R00         
	00F1BE28: 0000            ADD     R00,R00         
	00F1BE2A: 0000            ADD     R00,R00         
	00F1BE2C: 0000            ADD     R00,R00         
	00F1BE2E: 0000            ADD     R00,R00         
	00F1BE30: 0000            ADD     R00,R00         
	00F1BE32: 0000            ADD     R00,R00         
	00F1BE34: 0000            ADD     R00,R00         
	00F1BE36: 0000            ADD     R00,R00         
	00F1BE38: 0000            ADD     R00,R00         
	00F1BE3A: 0000            ADD     R00,R00         
	00F1BE3C: 0000            ADD     R00,R00         
	00F1BE3E: 0000            ADD     R00,R00         
	00F1BE40: 0000            ADD     R00,R00         
	00F1BE42: 0000            ADD     R00,R00         
	00F1BE44: 0000            ADD     R00,R00         
	00F1BE46: 0000            ADD     R00,R00         
	00F1BE48: 0000            ADD     R00,R00         
	00F1BE4A: 0000            ADD     R00,R00         
	00F1BE4C: 0000            ADD     R00,R00         
	00F1BE4E: 0000            ADD     R00,R00         
	00F1BE50: 0000            ADD     R00,R00         
	00F1BE52: 0000            ADD     R00,R00         
	00F1BE54: 0000            ADD     R00,R00         
	00F1BE56: 0000            ADD     R00,R00         
	00F1BE58: 0000            ADD     R00,R00         
	00F1BE5A: 0000            ADD     R00,R00         
	00F1BE5C: 0000            ADD     R00,R00         
	00F1BE5E: 0000            ADD     R00,R00         
	00F1BE60: 0000            ADD     R00,R00         
	00F1BE62: 0000            ADD     R00,R00         
	00F1BE64: 0000            ADD     R00,R00         
	00F1BE66: 0000            ADD     R00,R00         
	00F1BE68: 0000            ADD     R00,R00         
	00F1BE6A: 0000            ADD     R00,R00         
	00F1BE6C: 0000            ADD     R00,R00         
	00F1BE6E: 0000            ADD     R00,R00         
	00F1BE70: 0000            ADD     R00,R00         
	00F1BE72: 0000            ADD     R00,R00         
	00F1BE74: 0000            ADD     R00,R00         
	00F1BE76: 0000            ADD     R00,R00         
	00F1BE78: 0000            ADD     R00,R00         
	00F1BE7A: 0000            ADD     R00,R00         
	00F1BE7C: 0000            ADD     R00,R00         
	00F1BE7E: 0000            ADD     R00,R00         
	00F1BE80: 0000            ADD     R00,R00         
	00F1BE82: 0000            ADD     R00,R00         
	00F1BE84: 0000            ADD     R00,R00         
	00F1BE86: 0000            ADD     R00,R00         
	00F1BE88: 0000            ADD     R00,R00         
	00F1BE8A: 0000            ADD     R00,R00         
	00F1BE8C: 0000            ADD     R00,R00         
	00F1BE8E: 003F            ADD     R01,R31         
	00F1BE90: 0000            ADD     R00,R00         
	00F1BE92: 003F            ADD     R01,R31         
	00F1BE94: 0000            ADD     R00,R00         
	00F1BE96: 003F            ADD     R01,R31         
	00F1BE98: 0000            ADD     R00,R00         
	00F1BE9A: 003F            ADD     R01,R31         
	00F1BE9C: 0000            ADD     R00,R00         
	00F1BE9E: 0003            ADD     R00,R03         
	00F1BEA0: 0000            ADD     R00,R00         
	00F1BEA2: 0000            ADD     R00,R00         
	00F1BEA4: 0000            ADD     R00,R00         
	00F1BEA6: 0000            ADD     R00,R00         
	00F1BEA8: 0000            ADD     R00,R00         
	00F1BEAA: 0000            ADD     R00,R00         
	00F1BEAC: 0000            ADD     R00,R00         
	00F1BEAE: 0000            ADD     R00,R00         
	00F1BEB0: 0000            ADD     R00,R00         
	00F1BEB2: 0000            ADD     R00,R00         
	00F1BEB4: 0000            ADD     R00,R00         
	00F1BEB6: 0000            ADD     R00,R00         
	00F1BEB8: 0000            ADD     R00,R00         
	00F1BEBA: 0000            ADD     R00,R00         
	00F1BEBC: 0000            ADD     R00,R00         
	00F1BEBE: 0000            ADD     R00,R00         
	00F1BEC0: 0000            ADD     R00,R00         
	00F1BEC2: 0000            ADD     R00,R00         
	00F1BEC4: 0000            ADD     R00,R00         
	00F1BEC6: 0000            ADD     R00,R00         
	00F1BEC8: 0000            ADD     R00,R00         
	00F1BECA: 0007            ADD     R00,R07         
	00F1BECC: 8000            SUBQMOD $20,R00         
	00F1BECE: 8000            SUBQMOD $20,R00         
	00F1BED0: 7F14            CMPQ    -$8,R20         
	00F1BED2: 80ED            SUBQMOD $7,R13          
	00F1BED4: 7E2A            CMPQ    -$F,R10         
	00F1BED6: 81DC            SUBQMOD $E,R28          
	00F1BED8: 7D41            CMPQ    $A,R01          
	00F1BEDA: 82CD            SUBQMOD $16,R13         
	00F1BEDC: 7CB5            CMPQ    $5,R21          
	00F1BEDE: 83C0            SUBQMOD $1E,R00         
	00F1BEE0: 7B76            CMP     R27,R22         
	00F1BEE2: 84B4            SAT16S  R20             
	00F1BEE4: 7A92            CMP     R20,R18         
	00F1BEE6: 85AA            SAT16S  R10             
	00F1BEE8: 79B0            CMP     R13,R16         
	00F1BEEA: 86A2            SAT16S  R02             
	00F1BEEC: 879C            SAT16S  R28             
	00F1BEEE: 78D0            CMP     R06,R16         
	00F1BEF0: 86A2            SAT16S  R02             
	00F1BEF2: 79B0            CMP     R13,R16         
	00F1BEF4: 85AA            SAT16S  R10             
	00F1BEF6: 7A92            CMP     R20,R18         
	00F1BEF8: 84B4            SAT16S  R20             
	00F1BEFA: 7B76            CMP     R27,R22         
	00F1BEFC: 83C0            SUBQMOD $1E,R00         
	00F1BEFE: 7C5B            CMPQ    $2,R27          
	00F1BF00: 82CD            SUBQMOD $16,R13         
	00F1BF02: 7D41            CMPQ    $A,R01          
	00F1BF04: 81DC            SUBQMOD $E,R28          
	00F1BF06: 7E2A            CMPQ    -$F,R10         
	00F1BF08: 80ED            SUBQMOD $7,R13          
	00F1BF0A: 7F14            CMPQ    -$8,R20         
	00F1BF0C: 00F1            ADD     R07,R17         
	00F1BF0E: C4AE            STORE   R14,(R14+$14)   
	00F1BF10: 00F1            ADD     R07,R17         
	00F1BF12: C4B6            STORE   R22,(R14+$14)   
	00F1BF14: 00F1            ADD     R07,R17         
	00F1BF16: C4D2            STORE   R18,(R14+$18)   
	00F1BF18: 00F1            ADD     R07,R17         
	00F1BF1A: C4F8            STORE   R24,(R14+$1C)   
	00F1BF1C: 00F1            ADD     R07,R17         
	00F1BF1E: C560            STORE   R00,(R14+$2C)   
	00F1BF20: 00F1            ADD     R07,R17         
	00F1BF22: C5CA            STORE   R10,(R14+$38)   
	00F1BF24: 00F1            ADD     R07,R17         
	00F1BF26: C4AE            STORE   R14,(R14+$14)   
	00F1BF28: 00F1            ADD     R07,R17         
	00F1BF2A: C5D0            STORE   R16,(R14+$38)   
	00F1BF2C: 00F1            ADD     R07,R17         
	00F1BF2E: C60C            STORE   R12,(R14+$40)   
	00F1BF30: 00F1            ADD     R07,R17         
	00F1BF32: C626            STORE   R06,(R14+$44)   
	00F1BF34: 00F1            ADD     R07,R17         
	00F1BF36: C4AE            STORE   R14,(R14+$14)   
	00F1BF38: 00F1            ADD     R07,R17         
	00F1BF3A: C644            STORE   R04,(R14+$48)   
	00F1BF3C: 00F1            ADD     R07,R17         
	00F1BF3E: C4AE            STORE   R14,(R14+$14)   
	00F1BF40: 00F1            ADD     R07,R17         
	00F1BF42: C4AE            STORE   R14,(R14+$14)   
	00F1BF44: 00F1            ADD     R07,R17         
	00F1BF46: C4AE            STORE   R14,(R14+$14)   
	00F1BF48: 00F1            ADD     R07,R17         
	00F1BF4A: C652            STORE   R18,(R14+$48)   
	00F1BF4C: 00F1            ADD     R07,R17         
	00F1BF4E: B044            LOAD    (R15+$8),R04    
	00F1BF50: 0000            ADD     R00,R00         
	00F1BF52: 0000            ADD     R00,R00         
	00F1BF54: 0000            ADD     R00,R00         
	00F1BF56: 0000            ADD     R00,R00         
	00F1BF58: 0000            ADD     R00,R00         
	00F1BF5A: 0000            ADD     R00,R00         
	00F1BF5C: 00F1            ADD     R07,R17         
	00F1BF5E: BCCC            STORE   R12,(R06)       
	00F1BF60: 0017            ADD     R00,R23         
	00F1BF62: EF1C            LOAD    (R15+R24),R28   
	00F1BF64: 0017            ADD     R00,R23         
	00F1BF66: EF20            LOAD    (R15+R25),R00   
	00F1BF68: 00F1            ADD     R07,R17         
	00F1BF6A: B4A4            STOREB  R04,(R05)       
	00F1BF6C: 0000            ADD     R00,R00         
	00F1BF6E: FF80            ADDQMOD $1C,R00         
	00F1BF70: 00F1            ADD     R07,R17         
	00F1BF72: C05C            MIRROR  R28             
	00F1BF74: 0000            ADD     R00,R00         
	00F1BF76: 0000            ADD     R00,R00         
	00F1BF78: 0000            ADD     R00,R00         
	00F1BF7A: 0000            ADD     R00,R00         
	00F1BF7C: 0000            ADD     R00,R00         
	00F1BF7E: 0000            ADD     R00,R00         
	00F1BF80: 0001            ADD     R00,R01         
	00F1BF82: 0000            ADD     R00,R00         
	00F1BF84: 0000            ADD     R00,R00         
	00F1BF86: 0000            ADD     R00,R00         
	00F1BF88: 0000            ADD     R00,R00         
	00F1BF8A: 0005            ADD     R00,R05         
	00F1BF8C: 0000            ADD     R00,R00         
	00F1BF8E: 0042            ADD     R02,R02         
	00F1BF90: 0000            ADD     R00,R00         
	00F1BF92: 0000            ADD     R00,R00         
	00F1BF94: 0000            ADD     R00,R00         
	00F1BF96: 0000            ADD     R00,R00         
	00F1BF98: 0000            ADD     R00,R00         
	00F1BF9A: 0000            ADD     R00,R00         
	00F1BF9C: 0000            ADD     R00,R00         
	00F1BF9E: 0000            ADD     R00,R00         
	00F1BFA0: 0000            ADD     R00,R00         
	00F1BFA2: 0001            ADD     R00,R01         
	00F1BFA4: 0000            ADD     R00,R00         
	00F1BFA6: 0000            ADD     R00,R00         
	00F1BFA8: 0000            ADD     R00,R00         
	00F1BFAA: 0000            ADD     R00,R00         
	00F1BFAC: 0000            ADD     R00,R00         
	00F1BFAE: 0000            ADD     R00,R00         
	00F1BFB0: 0000            ADD     R00,R00         
	00F1BFB2: 0000            ADD     R00,R00         
	00F1BFB4: 0001            ADD     R00,R01         
	00F1BFB6: 0000            ADD     R00,R00         
	00F1BFB8: 0000            ADD     R00,R00         
	00F1BFBA: 0000            ADD     R00,R00         
	00F1BFBC: 0000            ADD     R00,R00         
	00F1BFBE: 0005            ADD     R00,R05         
	00F1BFC0: 0000            ADD     R00,R00         
	00F1BFC2: 0042            ADD     R02,R02         
	00F1BFC4: 0000            ADD     R00,R00         
	00F1BFC6: 0000            ADD     R00,R00         
	00F1BFC8: 0000            ADD     R00,R00         
	00F1BFCA: 0000            ADD     R00,R00         
	00F1BFCC: 0000            ADD     R00,R00         
	00F1BFCE: 0000            ADD     R00,R00         
	00F1BFD0: 0000            ADD     R00,R00         
	00F1BFD2: 0000            ADD     R00,R00         
	00F1BFD4: FFFF            ADDQMOD $1F,R31         
	00F1BFD6: FFFF            ADDQMOD $1F,R31         
	00F1BFD8: 0000            ADD     R00,R00         
	00F1BFDA: 0000            ADD     R00,R00         
	00F1BFDC: 0000            ADD     R00,R00         
	00F1BFDE: 0000            ADD     R00,R00         
	00F1BFE0: 0000            ADD     R00,R00         
	00F1BFE2: 0000            ADD     R00,R00         
	00F1BFE4: 5532            DIV     R09,R18         
	00F1BFE6: 3335            NOT     R21             
	00F1BFE8: 2D53            XOR     R10,R19         
	00F1BFEA: 4520            IMULT   R09,R00         
	00F1BFEC: 2863            OR      R03,R03         
	00F1BFEE: 2920            OR      R09,R00         
	00F1BFF0: 552D            DIV     R09,R13         
	00F1BFF2: 3233            NOT     R19             
	00F1BFF4: 3500            BTST    $8,R00          
	00F1BFF6: 0000            ADD     R00,R00         
	00F1BFF8: 981F BC40 00F1  MOVEI   #$F1BC40,R31    
	00F1BFFE: 8C12            MOVEQ   0,R18           
	00F1C000: 9252            MOVETA  R18,R18         
	00F1C002: 9801 5CE0 0000  MOVEI   #$5CE0,R01      
	00F1C008: 9800 A100 00F1  MOVEI   #$F1A100,R00    
	00F1C00E: 9802 BC60 00F1  MOVEI   #$F1BC60,R02    
	00F1C014: 980E 0000 00F1  MOVEI   #$F10000,R14    
	00F1C01A: A442            LOAD    (R02),R02       
	00F1C01C: 9804 0075 11C0  MOVEI   #$11C00075,R04  
	00F1C022: BDC2            STORE   R02,(R14)       
	00F1C024: C444            STORE   R04,(R14+$8)    
	00F1C026: 8E62            MOVEQ   19,R02          
	00F1C028: 980E A118 00F1  MOVEI   #$F1A118,R14    
	00F1C02E: 8EA4            MOVEQ   21,R04          
	00F1C030: C5C2            STORE   R02,(R14+$38)   
	00F1C032: C5E4            STORE   R04,(R14+$3C)   
	00F1C034: 9802 FE00 FFFF  MOVEI   #$FFFFFE00,R02  
	00F1C03A: BC01            STORE   R01,(R00)       
	00F1C03C: BDC2            STORE   R02,(R14)       
	00F1C03E: 981F BF70 00F1  MOVEI   #$F1BF70,R31    
	00F1C044: 9800 BC44 00F1  MOVEI   #$F1BC44,R00    
	00F1C04A: 9801 0018 0000  MOVEI   #$18,R01        
	00F1C050: A400            LOAD    (R00),R00       
	00F1C052: CC1E            MOVE    PC,R30          
	00F1C054: 9020            MOVETA  R01,R00         
	00F1C056: 095E            ADDQ    $A,R30          
	00F1C058: 9001            MOVETA  R00,R01         
	00F1C05A: BFFE            STORE   R30,(R31)       
	00F1C05C: 980E B5BC 00F1  MOVEI   #$F1B5BC,R14    
	00F1C062: 9640            MOVEFA  R18,R00         
	00F1C064: AC56            LOAD    (R14+$8),R22    
	00F1C066: BDC0            STORE   R00,(R14)       
	00F1C068: AC3E            LOAD    (R14+$4),R30    
	00F1C06A: 8C01            MOVEQ   0,R01           
	00F1C06C: AC9C            LOAD    (R14+$10),R28   
	00F1C06E: AC7D            LOAD    (R14+$C),R29    
	00F1C070: 3480            BTST    $4,R00          
	00F1C072: D5E1            JR      nz,$F1C092      
	00F1C074: E400            NOP                     
	00F1C076: 7C1C            CMPQ    $0,R28          
	00F1C078: D521            JR      nz,$F1C08C      
	00F1C07A: 8B97            MOVE    R28,R23         
	00F1C07C: 7C1D            CMPQ    $0,R29          
	00F1C07E: D561            JR      nz,$F1C096      
	00F1C080: 8BB7            MOVE    R29,R23         
	00F1C082: 37C0            BTST    $1E,R00         
	00F1C084: D2C1            JUMP    nz,(R22)        
	00F1C086: E400            NOP                     
	00F1C088: D3C0            JUMP    (R30)           
	00F1C08A: E400            NOP                     
	00F1C08C: C481            STORE   R01,(R14+$10)   
	00F1C08E: D3C0            JUMP    (R30)           
	00F1C090: E400            NOP                     
	00F1C092: D5A0            JR      $F1C0AE         
	00F1C094: E400            NOP                     
	00F1C096: 189F            SUBQ    $4,R31          
	00F1C098: 9800 C0A6 00F1  MOVEI   #$F1C0A6,R00    
	00F1C09E: BFE0            STORE   R00,(R31)       
	00F1C0A0: C461            STORE   R01,(R14+$C)    
	00F1C0A2: D3C0            JUMP    (R30)           
	00F1C0A4: E400            NOP                     
	00F1C0A6: 089F            ADDQ    $4,R31          
	00F1C0A8: A7FE            LOAD    (R31),R30       
	00F1C0AA: D3C0            JUMP    (R30)           
	00F1C0AC: E400            NOP                     
	00F1C0AE: 980E BC6C 00F1  MOVEI   #$F1BC6C,R14    
	00F1C0B4: 8D10            MOVEQ   8,R16           
	00F1C0B6: 9808 BC68 00F1  MOVEI   #$F1BC68,R08    
	00F1C0BC: 9813 0FFF 0000  MOVEI   #$FFF,R19       
	00F1C0C2: A507            LOAD    (R08),R07       
	00F1C0C4: 9812 BC48 00F1  MOVEI   #$F1BC48,R18    
	00F1C0CA: 8C28            MOVEQ   1,R08           
	00F1C0CC: 8A7D            MOVE    R19,R29         
	00F1C0CE: 980F BD6C 00F1  MOVEI   #$F1BD6C,R15    
	00F1C0D4: 9811 0018 0000  MOVEI   #$18,R17        
	00F1C0DA: 649D            SHRQ    $4,R29          
	00F1C0DC: A652            LOAD    (R18),R18       
	00F1C0DE: AC9A            LOAD    (R14+$10),R26   
	00F1C0E0: 981E C206 00F1  MOVEI   #$F1C206,R30    
	00F1C0E6: 7C1A            CMPQ    $0,R26          
	00F1C0E8: D3C2            JUMP    z,(R30)         
	00F1C0EA: E400            NOP                     
	00F1C0EC: 2907            OR      R08,R07         
	00F1C0EE: ACF6            LOAD    (R14+$1C),R22   
	00F1C0F0: ACBB            LOAD    (R14+$14),R27   
	00F1C0F2: A5CC            LOAD    (R14),R12       
	00F1C0F4: AC2D            LOAD    (R14+$4),R13    
	00F1C0F6: AC58            LOAD    (R14+$8),R24    
	00F1C0F8: AC79            LOAD    (R14+$C),R25    
	00F1C0FA: 27B6            AND     R29,R22         
	00F1C0FC: 8C09            MOVEQ   0,R09           
	00F1C0FE: 035B            ADD     R26,R27         
	00F1C100: 8B60            MOVE    R27,R00         
	00F1C102: 267B            AND     R19,R27         
	00F1C104: 6580            SHRQ    $C,R00          
	00F1C106: C4BB            STORE   R27,(R14+$14)   
	00F1C108: 000C            ADD     R00,R12         
	00F1C10A: 981E C1EE 00F1  MOVEI   #$F1C1EE,R30    
	00F1C110: 7989            CMP     R12,R09         
	00F1C112: D3C2            JUMP    z,(R30)         
	00F1C114: E400            NOP                     
	00F1C116: 89A0            MOVE    R13,R00         
	00F1C118: 8C01            MOVEQ   0,R01           
	00F1C11A: 1180            SUB     R12,R00         
	00F1C11C: D462            JR      z,$F1C124       
	00F1C11E: E400            NOP                     
	00F1C120: D5D4            JR      nn,$F1C13E      
	00F1C122: E400            NOP                     
	00F1C124: 7C19            CMPQ    $0,R25          
	00F1C126: D501            JR      nz,$F1C138      
	00F1C128: E400            NOP                     
	00F1C12A: 981E C20E 00F1  MOVEI   #$F1C20E,R30    
	00F1C130: C481            STORE   R01,(R14+$10)   
	00F1C132: 882A            MOVE    R01,R10         
	00F1C134: D3C0            JUMP    (R30)           
	00F1C136: E400            NOP                     
	00F1C138: 8B0C            MOVE    R24,R12         
	00F1C13A: 8B2D            MOVE    R25,R13         
	00F1C13C: C42D            STORE   R13,(R14+$4)    
	00F1C13E: 8981            MOVE    R12,R01         
	00F1C140: A5E0            LOAD    (R15),R00       
	00F1C142: 3C01            BCLR    $0,R01          
	00F1C144: 8C0B            MOVEQ   0,R11           
	00F1C146: 3C21            BCLR    $1,R01          
	00F1C148: 980A C1D0 00F1  MOVEI   #$F1C1D0,R10    
	00F1C14E: 7801            CMP     R00,R01         
	00F1C150: D142            JUMP    z,(R10)         
	00F1C152: 088B            ADDQ    $4,R11          
	00F1C154: 0880            ADDQ    $4,R00          
	00F1C156: 7801            CMP     R00,R01         
	00F1C158: D142            JUMP    z,(R10)         
	00F1C15A: 088B            ADDQ    $4,R11          
	00F1C15C: 0880            ADDQ    $4,R00          
	00F1C15E: 7801            CMP     R00,R01         
	00F1C160: D142            JUMP    z,(R10)         
	00F1C162: 088B            ADDQ    $4,R11          
	00F1C164: 0880            ADDQ    $4,R00          
	00F1C166: 7801            CMP     R00,R01         
	00F1C168: D142            JUMP    z,(R10)         
	00F1C16A: 088B            ADDQ    $4,R11          
	00F1C16C: 0880            ADDQ    $4,R00          
	00F1C16E: 7801            CMP     R00,R01         
	00F1C170: D142            JUMP    z,(R10)         
	00F1C172: 088B            ADDQ    $4,R11          
	00F1C174: 0880            ADDQ    $4,R00          
	00F1C176: 7801            CMP     R00,R01         
	00F1C178: D142            JUMP    z,(R10)         
	00F1C17A: 088B            ADDQ    $4,R11          
	00F1C17C: 0880            ADDQ    $4,R00          
	00F1C17E: 7801            CMP     R00,R01         
	00F1C180: D142            JUMP    z,(R10)         
	00F1C182: 088B            ADDQ    $4,R11          
	00F1C184: 0880            ADDQ    $4,R00          
	00F1C186: 7801            CMP     R00,R01         
	00F1C188: D142            JUMP    z,(R10)         
	00F1C18A: 088B            ADDQ    $4,R11          
	00F1C18C: 1A9F            SUBQ    $14,R31         
	00F1C18E: BDE1            STORE   R01,(R15)       
	00F1C190: BFEE            STORE   R14,(R31)       
	00F1C192: 8BEE            MOVE    R31,R14         
	00F1C194: C420            STORE   R00,(R14+$4)    
	00F1C196: C441            STORE   R01,(R14+$8)    
	00F1C198: C462            STORE   R02,(R14+$C)    
	00F1C19A: C483            STORE   R03,(R14+$10)   
	00F1C19C: 882E            MOVE    R01,R14         
	00F1C19E: A5C0            LOAD    (R14),R00       
	00F1C1A0: AC21            LOAD    (R14+$4),R01    
	00F1C1A2: C820            STORE   R00,(R15+$4)    
	00F1C1A4: AC42            LOAD    (R14+$8),R02    
	00F1C1A6: C841            STORE   R01,(R15+$8)    
	00F1C1A8: AC63            LOAD    (R14+$C),R03    
	00F1C1AA: C862            STORE   R02,(R15+$C)    
	00F1C1AC: AC80            LOAD    (R14+$10),R00   
	00F1C1AE: C883            STORE   R03,(R15+$10)   
	00F1C1B0: ACA1            LOAD    (R14+$14),R01   
	00F1C1B2: C8A0            STORE   R00,(R15+$14)   
	00F1C1B4: ACC2            LOAD    (R14+$18),R02   
	00F1C1B6: C8C1            STORE   R01,(R15+$18)   
	00F1C1B8: ACE3            LOAD    (R14+$1C),R03   
	00F1C1BA: C8E2            STORE   R02,(R15+$1C)   
	00F1C1BC: C903            STORE   R03,(R15+$20)   
	00F1C1BE: 8BEE            MOVE    R31,R14         
	00F1C1C0: AC20            LOAD    (R14+$4),R00    
	00F1C1C2: AC41            LOAD    (R14+$8),R01    
	00F1C1C4: AC62            LOAD    (R14+$C),R02    
	00F1C1C6: AC83            LOAD    (R14+$10),R03   
	00F1C1C8: A7EE            LOAD    (R31),R14       
	00F1C1CA: 0A9F            ADDQ    $14,R31         
	00F1C1CC: D420            JR      $F1C1D0         
	00F1C1CE: 8C8B            MOVEQ   4,R11           
	00F1C1D0: ED6A            LOAD    (R15+R11),R10   
	00F1C1D2: 342C            BTST    $1,R12          
	00F1C1D4: D441            JR      nz,$F1C1DA      
	00F1C1D6: E400            NOP                     
	00F1C1D8: 6E0A            SHARQ   $10,R10         
	00F1C1DA: 340C            BTST    $0,R12          
	00F1C1DC: D482            JR      z,$F1C1E6       
	00F1C1DE: E400            NOP                     
	00F1C1E0: 27AA            AND     R29,R10         
	00F1C1E2: D440            JR      $F1C1E8         
	00F1C1E4: E400            NOP                     
	00F1C1E6: 6D0A            SHARQ   $8,R10          
	00F1C1E8: 750A            RORQ    $8,R10          
	00F1C1EA: 6F0A            SHARQ   $18,R10         
	00F1C1EC: 46CA            IMULT   R22,R10         
	00F1C1EE: E400            NOP                     
	00F1C1F0: BE4A            STORE   R10,(R18)       
	00F1C1F2: 981E C0FE 00F1  MOVEI   #$F1C0FE,R30    
	00F1C1F8: 1831            SUBQ    $1,R17          
	00F1C1FA: D3C1            JUMP    nz,(R30)        
	00F1C1FC: 0812            ADDQ    $20,R18         
	00F1C1FE: BDCC            STORE   R12,(R14)       
	00F1C200: C4BB            STORE   R27,(R14+$14)   
	00F1C202: D520            JR      $F1C216         
	00F1C204: E400            NOP                     
	00F1C206: 3008            NOT     R08             
	00F1C208: 2507            AND     R08,R07         
	00F1C20A: 8C0A            MOVEQ   0,R10           
	00F1C20C: 3008            NOT     R08             
	00F1C20E: BE4A            STORE   R10,(R18)       
	00F1C210: 1831            SUBQ    $1,R17          
	00F1C212: D7A1            JR      nz,$F1C20E      
	00F1C214: 0C12            ADDQT   $20,R18         
	00F1C216: 9800 02FC 0000  MOVEI   #$2FC,R00       
	00F1C21C: 1830            SUBQ    $1,R16          
	00F1C21E: D5A2            JR      z,$F1C23A       
	00F1C220: 63E8            SHLQ    $1,R08          
	00F1C222: 981E C0DE 00F1  MOVEI   #$F1C0DE,R30    
	00F1C228: 088F            ADDQ    $4,R15          
	00F1C22A: 080E            ADDQ    $20,R14         
	00F1C22C: 080F            ADDQ    $20,R15         
	00F1C22E: 1012            SUB     R00,R18         
	00F1C230: 9811 0018 0000  MOVEI   #$18,R17        
	00F1C236: D3C0            JUMP    (R30)           
	00F1C238: E400            NOP                     
	00F1C23A: 9808 BC68 00F1  MOVEI   #$F1BC68,R08    
	00F1C240: 9641            MOVEFA  R18,R01         
	00F1C242: BD07            STORE   R07,(R08)       
	00F1C244: A7FE            LOAD    (R31),R30       
	00F1C246: 3C81            BCLR    $4,R01          
	00F1C248: D3C0            JUMP    (R30)           
	00F1C24A: 9032            MOVETA  R01,R18         
	00F1C24C: 9800 B4A0 00F1  MOVEI   #$F1B4A0,R00    
	00F1C252: A401            LOAD    (R00),R01       
	00F1C254: 8C24            MOVEQ   1,R04           
	00F1C256: 8822            MOVE    R01,R02         
	00F1C258: 8823            MOVE    R01,R03         
	00F1C25A: 6443            SHRQ    $2,R03          
	00F1C25C: 2482            AND     R04,R02         
	00F1C25E: 2483            AND     R04,R03         
	00F1C260: 2C43            XOR     R02,R03         
	00F1C262: 8822            MOVE    R01,R02         
	00F1C264: 8864            MOVE    R03,R04         
	00F1C266: 6422            SHRQ    $1,R02          
	00F1C268: 6204            SHLQ    $10,R04         
	00F1C26A: 9806 FFFF 0000  MOVEI   #$FFFF,R06      
	00F1C270: 2844            OR      R02,R04         
	00F1C272: 24C3            AND     R06,R03         
	00F1C274: 9802 B4A4 00F1  MOVEI   #$F1B4A4,R02    
	00F1C27A: 3403            BTST    $0,R03          
	00F1C27C: D4C2            JR      z,$F1C28A       
	00F1C27E: E400            NOP                     
	00F1C280: 9803 007F 0000  MOVEI   #$7F,R03        
	00F1C286: D480            JR      $F1C290         
	00F1C288: E400            NOP                     
	00F1C28A: 9803 FF80 0000  MOVEI   #$FF80,R03      
	00F1C290: A7FE            LOAD    (R31),R30       
	00F1C292: BC04            STORE   R04,(R00)       
	00F1C294: D3C0            JUMP    (R30)           
	00F1C296: BC43            STORE   R03,(R02)       
	00F1C298: 3C7D            BCLR    $3,R29          
	00F1C29A: 9805 BC44 00F1  MOVEI   #$F1BC44,R05    
	00F1C2A0: 9806 BC4C 00F1  MOVEI   #$F1BC4C,R06    
	00F1C2A6: A4A1            LOAD    (R05),R01       
	00F1C2A8: A4C0            LOAD    (R06),R00       
	00F1C2AA: 9819 C2F2 00F1  MOVEI   #$F1C2F2,R25    
	00F1C2B0: 0801            ADDQ    $20,R01         
	00F1C2B2: 1820            SUBQ    $1,R00          
	00F1C2B4: D321            JUMP    nz,(R25)        
	00F1C2B6: E400            NOP                     
	00F1C2B8: 9815 BC50 00F1  MOVEI   #$F1BC50,R21    
	00F1C2BE: 9807 B5D8 00F1  MOVEI   #$F1B5D8,R07    
	00F1C2C4: A6B6            LOAD    (R21),R22       
	00F1C2C6: 9808 B8F8 00F1  MOVEI   #$F1B8F8,R08    
	00F1C2CC: 9809 BC48 00F1  MOVEI   #$F1BC48,R09    
	00F1C2D2: 7C36            CMPQ    $1,R22          
	00F1C2D4: D4C1            JR      nz,$F1C2E2      
	00F1C2D6: E400            NOP                     
	00F1C2D8: 8C16            MOVEQ   0,R22           
	00F1C2DA: BD27            STORE   R07,(R09)       
	00F1C2DC: 8901            MOVE    R08,R01         
	00F1C2DE: D480            JR      $F1C2E8         
	00F1C2E0: E400            NOP                     
	00F1C2E2: 8C36            MOVEQ   1,R22           
	00F1C2E4: BD28            STORE   R08,(R09)       
	00F1C2E6: 88E1            MOVE    R07,R01         
	00F1C2E8: BEB6            STORE   R22,(R21)       
	00F1C2EA: 9800 0018 0000  MOVEI   #$18,R00        
	00F1C2F0: 3892            BSET    $4,R18          
	00F1C2F2: 9807 BC5C 00F1  MOVEI   #$F1BC5C,R07    
	00F1C2F8: 8C28            MOVEQ   1,R08           
	00F1C2FA: BCA1            STORE   R01,(R05)       
	00F1C2FC: BCC0            STORE   R00,(R06)       
	00F1C2FE: BCE8            STORE   R08,(R07)       
	00F1C300: 3412            BTST    $0,R18          
	00F1C302: D462            JR      z,$F1C30A       
	00F1C304: E400            NOP                     
	00F1C306: 3852            BSET    $2,R18          
	00F1C308: 3CDD            BCLR    $6,R29          
	00F1C30A: 397D            BSET    $B,R29          
	00F1C30C: A7FC            LOAD    (R31),R28       
	00F1C30E: 089F            ADDQ    $4,R31          
	00F1C310: 085C            ADDQ    $2,R28          
	00F1C312: D380            JUMP    (R28)           
	00F1C314: BFDD            STORE   R29,(R30)       
	00F1C316: E400            NOP                     
	00F1C318: E400            NOP                     
	00F1C31A: 0000            ADD     R00,R00         
	00F1C31C: 0000            ADD     R00,R00         
	00F1C31E: 0000            ADD     R00,R00         
	00F1C320: 3C7D            BCLR    $3,R29          
	00F1C322: 9816 B5D4 00F1  MOVEI   #$F1B5D4,R22    
	00F1C328: 6212            SHLQ    $10,R18         
	00F1C32A: 9815 B5D0 00F1  MOVEI   #$F1B5D0,R21    
	00F1C330: 6612            SHRQ    $10,R18         
	00F1C332: A6D6            LOAD    (R22),R22       
	00F1C334: 981A C34E 00F1  MOVEI   #$F1C34E,R26    
	00F1C33A: 2AD2            OR      R22,R18         
	00F1C33C: 189F            SUBQ    $4,R31          
	00F1C33E: A6B6            LOAD    (R21),R22       
	00F1C340: BFFA            STORE   R26,(R31)       
	00F1C342: 9819 C68A 00F1  MOVEI   #$F1C68A,R25    
	00F1C348: 7C16            CMPQ    $0,R22          
	00F1C34A: D321            JUMP    nz,(R25)        
	00F1C34C: E400            NOP                     
	00F1C34E: 089F            ADDQ    $4,R31          
	00F1C350: 3412            BTST    $0,R18          
	00F1C352: D462            JR      z,$F1C35A       
	00F1C354: E400            NOP                     
	00F1C356: 3872            BSET    $3,R18          
	00F1C358: 3CFD            BCLR    $7,R29          
	00F1C35A: 399D            BSET    $C,R29          
	00F1C35C: A7FC            LOAD    (R31),R28       
	00F1C35E: 089F            ADDQ    $4,R31          
	00F1C360: 085C            ADDQ    $2,R28          
	00F1C362: D380            JUMP    (R28)           
	00F1C364: BFDD            STORE   R29,(R30)       
	00F1C366: E400            NOP                     
	00F1C368: 3C7D            BCLR    $3,R29          
	00F1C36A: 395D            BSET    $A,R29          
	00F1C36C: 9817 A148 00F1  MOVEI   #$F1A148,R23    
	00F1C372: 9800 BC5C 00F1  MOVEI   #$F1BC5C,R00    
	00F1C378: 9818 A14C 00F1  MOVEI   #$F1A14C,R24    
	00F1C37E: A401            LOAD    (R00),R01       
	00F1C380: 9819 C420 00F1  MOVEI   #$F1C420,R25    
	00F1C386: 7C01            CMPQ    $0,R01          
	00F1C388: D501            JR      nz,$F1C39A      
	00F1C38A: E400            NOP                     
	00F1C38C: 980E BC54 00F1  MOVEI   #$F1BC54,R14    
	00F1C392: A5CB            LOAD    (R14),R11       
	00F1C394: AC2C            LOAD    (R14+$4),R12    
	00F1C396: D320            JUMP    (R25)           
	00F1C398: E400            NOP                     
	00F1C39A: 8C02            MOVEQ   0,R02           
	00F1C39C: 9801 BC44 00F1  MOVEI   #$F1BC44,R01    
	00F1C3A2: 980D BE9C 00F1  MOVEI   #$F1BE9C,R13    
	00F1C3A8: BC02            STORE   R02,(R00)       
	00F1C3AA: A42E            LOAD    (R01),R14       
	00F1C3AC: A5AD            LOAD    (R13),R13       
	00F1C3AE: A5C0            LOAD    (R14),R00       
	00F1C3B0: AC21            LOAD    (R14+$4),R01    
	00F1C3B2: AC42            LOAD    (R14+$8),R02    
	00F1C3B4: AC63            LOAD    (R14+$C),R03    
	00F1C3B6: AC84            LOAD    (R14+$10),R04   
	00F1C3B8: ACA5            LOAD    (R14+$14),R05   
	00F1C3BA: ACC6            LOAD    (R14+$18),R06   
	00F1C3BC: ACE7            LOAD    (R14+$1C),R07   
	00F1C3BE: 340D            BTST    $0,R13          
	00F1C3C0: D4E2            JR      z,$F1C3D0       
	00F1C3C2: E400            NOP                     
	00F1C3C4: 880B            MOVE    R00,R11         
	00F1C3C6: 882C            MOVE    R01,R12         
	00F1C3C8: 004B            ADD     R02,R11         
	00F1C3CA: 006C            ADD     R03,R12         
	00F1C3CC: D4C0            JR      $F1C3DA         
	00F1C3CE: E400            NOP                     
	00F1C3D0: 880B            MOVE    R00,R11         
	00F1C3D2: 0022            ADD     R01,R02         
	00F1C3D4: 006B            ADD     R03,R11         
	00F1C3D6: 004B            ADD     R02,R11         
	00F1C3D8: 896C            MOVE    R11,R12         
	00F1C3DA: 342D            BTST    $1,R13          
	00F1C3DC: D4E2            JR      z,$F1C3EC       
	00F1C3DE: E400            NOP                     
	00F1C3E0: 8889            MOVE    R04,R09         
	00F1C3E2: 88AA            MOVE    R05,R10         
	00F1C3E4: 00C9            ADD     R06,R09         
	00F1C3E6: 00EA            ADD     R07,R10         
	00F1C3E8: D4C0            JR      $F1C3F6         
	00F1C3EA: E400            NOP                     
	00F1C3EC: 8889            MOVE    R04,R09         
	00F1C3EE: 00A6            ADD     R05,R06         
	00F1C3F0: 00E9            ADD     R07,R09         
	00F1C3F2: 00C9            ADD     R06,R09         
	00F1C3F4: 892A            MOVE    R09,R10         
	00F1C3F6: 9800 BE8C 00F1  MOVEI   #$F1BE8C,R00    
	00F1C3FC: 9801 BE94 00F1  MOVEI   #$F1BE94,R01    
	00F1C402: A400            LOAD    (R00),R00       
	00F1C404: A421            LOAD    (R01),R01       
	00F1C406: 480B            IMULTN  R00,R11         
	00F1C408: 5029            IMACN   R01,R09         
	00F1C40A: 4C0B            RESMAC  R11             
	00F1C40C: 480C            IMULTN  R00,R12         
	00F1C40E: 502A            IMACN   R01,R10         
	00F1C410: 4C0C            RESMAC  R12             
	00F1C412: 980E BC54 00F1  MOVEI   #$F1BC54,R14    
	00F1C418: 6CCB            SHARQ   $6,R11          
	00F1C41A: 6CCC            SHARQ   $6,R12          
	00F1C41C: BDCB            STORE   R11,(R14)       
	00F1C41E: C42C            STORE   R12,(R14+$4)    
	00F1C420: BF0C            STORE   R12,(R24)       
	00F1C422: BEEB            STORE   R11,(R23)       
	00F1C424: 9803 C458 00F1  MOVEI   #$F1C458,R03    
	00F1C42A: 37F2            BTST    $1F,R18         
	00F1C42C: D062            JUMP    z,(R03)         
	00F1C42E: E400            NOP                     
	00F1C430: 9801 CC50 00F1  MOVEI   #$F1CC50,R01    
	00F1C436: A423            LOAD    (R01),R03       
	00F1C438: 9800 C458 00F1  MOVEI   #$F1C458,R00    
	00F1C43E: 1823            SUBQ    $1,R03          
	00F1C440: D014            JUMP    nn,(R00)        
	00F1C442: BC23            STORE   R03,(R01)       
	00F1C444: 9803 0159 0000  MOVEI   #$159,R03       
	00F1C44A: BC23            STORE   R03,(R01)       
	00F1C44C: 189F            SUBQ    $4,R31          
	00F1C44E: 9819 CC5C 00F1  MOVEI   #$F1CC5C,R25    
	00F1C454: D320            JUMP    (R25)           
	00F1C456: BFE0            STORE   R00,(R31)       
	00F1C458: 3412            BTST    $0,R18          
	00F1C45A: D462            JR      z,$F1C462       
	00F1C45C: E400            NOP                     
	00F1C45E: 3832            BSET    $1,R18          
	00F1C460: 3CBD            BCLR    $5,R29          
	00F1C462: A7FC            LOAD    (R31),R28       
	00F1C464: 085C            ADDQ    $2,R28          
	00F1C466: 089F            ADDQ    $4,R31          
	00F1C468: D380            JUMP    (R28)           
	00F1C46A: BFDD            STORE   R29,(R30)       
	00F1C46C: E400            NOP                     
	00F1C46E: E400            NOP                     
	00F1C470: 981E C486 00F1  MOVEI   #$F1C486,R30    
	00F1C476: 189F            SUBQ    $4,R31          
	00F1C478: 981A BC6C 00F1  MOVEI   #$F1BC6C,R26    
	00F1C47E: BFFE            STORE   R30,(R31)       
	00F1C480: 981C 00FF 0000  MOVEI   #$FF,R28        
	00F1C486: A6E0            LOAD    (R23),R00       
	00F1C488: 981B BF0C 00F1  MOVEI   #$F1BF0C,R27    
	00F1C48E: 8B4E            MOVE    R26,R14         
	00F1C490: 0897            ADDQ    $4,R23          
	00F1C492: 8DFD            MOVEQ   15,R29          
	00F1C494: 8801            MOVE    R00,R01         
	00F1C496: 27A1            AND     R29,R01         
	00F1C498: 8819            MOVE    R00,R25         
	00F1C49A: 63C1            SHLQ    $2,R01          
	00F1C49C: 6499            SHRQ    $4,R25          
	00F1C49E: 003B            ADD     R01,R27         
	00F1C4A0: 27B9            AND     R29,R25         
	00F1C4A2: A77E            LOAD    (R27),R30       
	00F1C4A4: 8B21            MOVE    R25,R01         
	00F1C4A6: 6361            SHLQ    $5,R01          
	00F1C4A8: 002E            ADD     R01,R14         
	00F1C4AA: D3C0            JUMP    (R30)           
	00F1C4AC: E400            NOP                     
	00F1C4AE: 089F            ADDQ    $4,R31          
	00F1C4B0: A7FE            LOAD    (R31),R30       
	00F1C4B2: D3C0            JUMP    (R30)           
	00F1C4B4: E400            NOP                     
	00F1C4B6: 8C01            MOVEQ   0,R01           
	00F1C4B8: 3600            BTST    $10,R00         
	00F1C4BA: D4E1            JR      nz,$F1C4CA      
	00F1C4BC: A7FE            LOAD    (R31),R30       
	00F1C4BE: BDC1            STORE   R01,(R14)       
	00F1C4C0: C421            STORE   R01,(R14+$4)    
	00F1C4C2: C481            STORE   R01,(R14+$10)   
	00F1C4C4: C4A1            STORE   R01,(R14+$14)   
	00F1C4C6: C4C1            STORE   R01,(R14+$18)   
	00F1C4C8: C4E1            STORE   R01,(R14+$1C)   
	00F1C4CA: C441            STORE   R01,(R14+$8)    
	00F1C4CC: C461            STORE   R01,(R14+$C)    
	00F1C4CE: D3C0            JUMP    (R30)           
	00F1C4D0: E400            NOP                     
	00F1C4D2: 980F BF4C 00F1  MOVEI   #$F1BF4C,R15    
	00F1C4D8: 881D            MOVE    R00,R29         
	00F1C4DA: 981E C560 00F1  MOVEI   #$F1C560,R30    
	00F1C4E0: 6500            SHRQ    $8,R00          
	00F1C4E2: 8F01            MOVEQ   24,R01          
	00F1C4E4: 2780            AND     R28,R00         
	00F1C4E6: A5EF            LOAD    (R15),R15       
	00F1C4E8: 4020            MULT    R01,R00         
	00F1C4EA: 000F            ADD     R00,R15         
	00F1C4EC: B0A1            LOAD    (R15+$14),R01   
	00F1C4EE: 8BA0            MOVE    R29,R00         
	00F1C4F0: 6201            SHLQ    $10,R01         
	00F1C4F2: 2820            OR      R01,R00         
	00F1C4F4: D3C0            JUMP    (R30)           
	00F1C4F6: E400            NOP                     
	00F1C4F8: 8801            MOVE    R00,R01         
	00F1C4FA: 6E01            SHARQ   $10,R01         
	00F1C4FC: ACFD            LOAD    (R14+$1C),R29   
	00F1C4FE: 7C01            CMPQ    $0,R01          
	00F1C500: D581            JR      nz,$F1C51A      
	00F1C502: E400            NOP                     
	00F1C504: 9801 FF00 FFFF  MOVEI   #$FFFFFF00,R01  
	00F1C50A: 6500            SHRQ    $8,R00          
	00F1C50C: 243D            AND     R01,R29         
	00F1C50E: 2780            AND     R28,R00         
	00F1C510: A7FE            LOAD    (R31),R30       
	00F1C512: 281D            OR      R00,R29         
	00F1C514: C4FD            STORE   R29,(R14+$1C)   
	00F1C516: D3C0            JUMP    (R30)           
	00F1C518: E400            NOP                     
	00F1C51A: 8BA0            MOVE    R29,R00         
	00F1C51C: 2780            AND     R28,R00         
	00F1C51E: 981E C54C 00F1  MOVEI   #$F1C54C,R30    
	00F1C524: 0020            ADD     R01,R00         
	00F1C526: 7C00            CMPQ    $0,R00          
	00F1C528: D3C2            JUMP    z,(R30)         
	00F1C52A: E400            NOP                     
	00F1C52C: 981E 0040 0000  MOVEI   #$40,R30        
	00F1C532: 101E            SUB     R00,R30         
	00F1C534: D4D4            JR      nn,$F1C542      
	00F1C536: E400            NOP                     
	00F1C538: 9800 0040 0000  MOVEI   #$40,R00        
	00F1C53E: D4C0            JR      $F1C54C         
	00F1C540: E400            NOP                     
	00F1C542: 8801            MOVE    R00,R01         
	00F1C544: 1821            SUBQ    $1,R01          
	00F1C546: D454            JR      nn,$F1C54C      
	00F1C548: E400            NOP                     
	00F1C54A: 8C00            MOVEQ   0,R00           
	00F1C54C: 9801 FF00 FFFF  MOVEI   #$FFFFFF00,R01  
	00F1C552: 243D            AND     R01,R29         
	00F1C554: 281D            OR      R00,R29         
	00F1C556: A7FE            LOAD    (R31),R30       
	00F1C558: C4FD            STORE   R29,(R14+$1C)   
	00F1C55A: D3C0            JUMP    (R30)           
	00F1C55C: E400            NOP                     
	00F1C55E: 0000            ADD     R00,R00         
	00F1C560: 8C01            MOVEQ   0,R01           
	00F1C562: 881D            MOVE    R00,R29         
	00F1C564: C461            STORE   R01,(R14+$C)    
	00F1C566: 6500            SHRQ    $8,R00          
	00F1C568: C441            STORE   R01,(R14+$8)    
	00F1C56A: 2780            AND     R28,R00         
	00F1C56C: C4A1            STORE   R01,(R14+$14)   
	00F1C56E: C4C0            STORE   R00,(R14+$18)   
	00F1C570: 8F01            MOVEQ   24,R01          
	00F1C572: 980F BF4C 00F1  MOVEI   #$F1BF4C,R15    
	00F1C578: 661D            SHRQ    $10,R29         
	00F1C57A: A5EF            LOAD    (R15),R15       
	00F1C57C: 4020            MULT    R01,R00         
	00F1C57E: A7FE            LOAD    (R31),R30       
	00F1C580: 000F            ADD     R00,R15         
	00F1C582: B09B            LOAD    (R15+$10),R27   
	00F1C584: 8B61            MOVE    R27,R01         
	00F1C586: 279B            AND     R28,R27         
	00F1C588: 2781            AND     R28,R01         
	00F1C58A: 631B            SHLQ    $8,R27          
	00F1C58C: 2B61            OR      R27,R01         
	00F1C58E: C4E1            STORE   R01,(R14+$1C)   
	00F1C590: A5E0            LOAD    (R15),R00       
	00F1C592: B021            LOAD    (R15+$4),R01    
	00F1C594: BDC0            STORE   R00,(R14)       
	00F1C596: C421            STORE   R01,(R14+$4)    
	00F1C598: B040            LOAD    (R15+$8),R00    
	00F1C59A: B061            LOAD    (R15+$C),R01    
	00F1C59C: C440            STORE   R00,(R14+$8)    
	00F1C59E: C461            STORE   R01,(R14+$C)    
	00F1C5A0: 9800 6500 1DCD  MOVEI   #$1DCD6500,R00  
	00F1C5A6: 9801 BC64 00F1  MOVEI   #$F1BC64,R01    
	00F1C5AC: 57A0            DIV     R29,R00         
	00F1C5AE: A421            LOAD    (R01),R01       
	00F1C5B0: 2800            OR      R00,R00         
	00F1C5B2: 881D            MOVE    R00,R29         
	00F1C5B4: E400            NOP                     
	00F1C5B6: 543D            DIV     R01,R29         
	00F1C5B8: 9800 4000 0006  MOVEI   #$64000,R00     
	00F1C5BE: 2BBD            OR      R29,R29         
	00F1C5C0: 57A0            DIV     R29,R00         
	00F1C5C2: 2800            OR      R00,R00         
	00F1C5C4: C480            STORE   R00,(R14+$10)   
	00F1C5C6: D3C0            JUMP    (R30)           
	00F1C5C8: E400            NOP                     
	00F1C5CA: A7FE            LOAD    (R31),R30       
	00F1C5CC: D3C0            JUMP    (R30)           
	00F1C5CE: E400            NOP                     
	00F1C5D0: 8801            MOVE    R00,R01         
	00F1C5D2: 6600            SHRQ    $10,R00         
	00F1C5D4: 7C00            CMPQ    $0,R00          
	00F1C5D6: D481            JR      nz,$F1C5E0      
	00F1C5D8: E400            NOP                     
	00F1C5DA: A7FE            LOAD    (R31),R30       
	00F1C5DC: D3C0            JUMP    (R30)           
	00F1C5DE: E400            NOP                     
	00F1C5E0: 9801 BC64 00F1  MOVEI   #$F1BC64,R01    
	00F1C5E6: 881D            MOVE    R00,R29         
	00F1C5E8: A7FE            LOAD    (R31),R30       
	00F1C5EA: 9800 6500 1DCD  MOVEI   #$1DCD6500,R00  
	00F1C5F0: A421            LOAD    (R01),R01       
	00F1C5F2: 57A0            DIV     R29,R00         
	00F1C5F4: 2800            OR      R00,R00         
	00F1C5F6: 881D            MOVE    R00,R29         
	00F1C5F8: 543D            DIV     R01,R29         
	00F1C5FA: 9800 4000 0006  MOVEI   #$64000,R00     
	00F1C600: 2BBD            OR      R29,R29         
	00F1C602: 57A0            DIV     R29,R00         
	00F1C604: 2800            OR      R00,R00         
	00F1C606: C480            STORE   R00,(R14+$10)   
	00F1C608: D3C0            JUMP    (R30)           
	00F1C60A: E400            NOP                     
	00F1C60C: ACFD            LOAD    (R14+$1C),R29   
	00F1C60E: 8BA0            MOVE    R29,R00         
	00F1C610: 9801 FF00 FFFF  MOVEI   #$FFFFFF00,R01  
	00F1C616: 6500            SHRQ    $8,R00          
	00F1C618: 243D            AND     R01,R29         
	00F1C61A: 2780            AND     R28,R00         
	00F1C61C: A7FE            LOAD    (R31),R30       
	00F1C61E: 281D            OR      R00,R29         
	00F1C620: C4FD            STORE   R29,(R14+$1C)   
	00F1C622: D3C0            JUMP    (R30)           
	00F1C624: E400            NOP                     
	00F1C626: ACDD            LOAD    (R14+$18),R29   
	00F1C628: 980F B044 00F1  MOVEI   #$F1B044,R15    
	00F1C62E: 8F01            MOVEQ   24,R01          
	00F1C630: 279D            AND     R28,R29         
	00F1C632: 6500            SHRQ    $8,R00          
	00F1C634: 403D            MULT    R01,R29         
	00F1C636: A7FE            LOAD    (R31),R30       
	00F1C638: 03AF            ADD     R29,R15         
	00F1C63A: A5E1            LOAD    (R15),R01       
	00F1C63C: E400            NOP                     
	00F1C63E: 0001            ADD     R00,R01         
	00F1C640: D3C0            JUMP    (R30)           
	00F1C642: BDC1            STORE   R01,(R14)       
	00F1C644: 980F BF4C 00F1  MOVEI   #$F1BF4C,R15    
	00F1C64A: A7FE            LOAD    (R31),R30       
	00F1C64C: 6C80            SHARQ   $4,R00          
	00F1C64E: D3C0            JUMP    (R30)           
	00F1C650: BDE0            STORE   R00,(R15)       
	00F1C652: 8C05            MOVEQ   0,R05           
	00F1C654: 9640            MOVEFA  R18,R00         
	00F1C656: 3800            BSET    $0,R00          
	00F1C658: 9804 CC54 00F1  MOVEI   #$F1CC54,R04    
	00F1C65E: 9012            MOVETA  R00,R18         
	00F1C660: BC85            STORE   R05,(R04)       
	00F1C662: 8DE1            MOVEQ   15,R01          
	00F1C664: 0884            ADDQ    $4,R04          
	00F1C666: 9802 B5BC 00F1  MOVEI   #$F1B5BC,R02    
	00F1C66C: BC85            STORE   R05,(R04)       
	00F1C66E: 9640            MOVEFA  R18,R00         
	00F1C670: 9643            MOVEFA  R18,R03         
	00F1C672: 2420            AND     R01,R00         
	00F1C674: 7820            CMP     R01,R00         
	00F1C676: D761            JR      nz,$F1C66E      
	00F1C678: BC43            STORE   R03,(R02)       
	00F1C67A: 8C00            MOVEQ   0,R00           
	00F1C67C: 9801 A114 00F1  MOVEI   #$F1A114,R01    
	00F1C682: BC20            STORE   R00,(R01)       
	00F1C684: E400            NOP                     
	00F1C686: E400            NOP                     
	00F1C688: E400            NOP                     
	00F1C68A: 9800 B044 00F1  MOVEI   #$F1B044,R00    
	00F1C690: 8D63            MOVEQ   11,R03          
	00F1C692: 6380            SHLQ    $4,R00          
	00F1C694: 9801 B56C 00F1  MOVEI   #$F1B56C,R01    
	00F1C69A: 2803            OR      R00,R03         
	00F1C69C: 8C02            MOVEQ   0,R02           
	00F1C69E: BC23            STORE   R03,(R01)       
	00F1C6A0: 0881            ADDQ    $4,R01          
	00F1C6A2: 980E B4AC 00F1  MOVEI   #$F1B4AC,R14    
	00F1C6A8: BC22            STORE   R02,(R01)       
	00F1C6AA: A5D8            LOAD    (R14),R24       
	00F1C6AC: 9816 0FFF 0000  MOVEI   #$FFF,R22       
	00F1C6B2: AC37            LOAD    (R14+$4),R23    
	00F1C6B4: 8AC9            MOVE    R22,R09         
	00F1C6B6: AC59            LOAD    (R14+$8),R25    
	00F1C6B8: 6489            SHRQ    $4,R09          
	00F1C6BA: 8B02            MOVE    R24,R02         
	00F1C6BC: AC7A            LOAD    (R14+$C),R26    
	00F1C6BE: 0838            ADDQ    $1,R24          
	00F1C6C0: 981C CAB0 00F1  MOVEI   #$F1CAB0,R28    
	00F1C6C6: 7AE2            CMP     R23,R02         
	00F1C6C8: D381            JUMP    nz,(R28)        
	00F1C6CA: BDD8            STORE   R24,(R14)       
	00F1C6CC: 9800 B3F8 00F1  MOVEI   #$F1B3F8,R00    
	00F1C6D2: 8C03            MOVEQ   0,R03           
	00F1C6D4: A402            LOAD    (R00),R02       
	00F1C6D6: E400            NOP                     
	00F1C6D8: 7C02            CMPQ    $0,R02          
	00F1C6DA: D4C2            JR      z,$F1C6E8       
	00F1C6DC: E400            NOP                     
	00F1C6DE: 1822            SUBQ    $1,R02          
	00F1C6E0: BC03            STORE   R03,(R00)       
	00F1C6E2: 885A            MOVE    R02,R26         
	00F1C6E4: 8879            MOVE    R03,R25         
	00F1C6E6: C47A            STORE   R26,(R14+$C)    
	00F1C6E8: 9800 B3FC 00F1  MOVEI   #$F1B3FC,R00    
	00F1C6EE: A402            LOAD    (R00),R02       
	00F1C6F0: E400            NOP                     
	00F1C6F2: 7C02            CMPQ    $0,R02          
	00F1C6F4: D4C2            JR      z,$F1C702       
	00F1C6F6: E400            NOP                     
	00F1C6F8: 1822            SUBQ    $1,R02          
	00F1C6FA: BC03            STORE   R03,(R00)       
	00F1C6FC: 083A            ADDQ    $1,R26          
	00F1C6FE: 8859            MOVE    R02,R25         
	00F1C700: C47A            STORE   R26,(R14+$C)    
	00F1C702: 8E03            MOVEQ   16,R03          
	00F1C704: 8B22            MOVE    R25,R02         
	00F1C706: 63C3            SHLQ    $2,R03          
	00F1C708: 8C18            MOVEQ   0,R24           
	00F1C70A: 9800 C742 00F1  MOVEI   #$F1C742,R00    
	00F1C710: 1062            SUB     R03,R02         
	00F1C712: D018            JUMP    n,(R00)         
	00F1C714: BDD8            STORE   R24,(R14)       
	00F1C716: 9800 B490 00F1  MOVEI   #$F1B490,R00    
	00F1C71C: 083A            ADDQ    $1,R26          
	00F1C71E: A402            LOAD    (R00),R02       
	00F1C720: 8C19            MOVEQ   0,R25           
	00F1C722: 7B42            CMP     R26,R02         
	00F1C724: D5A1            JR      nz,$F1C740      
	00F1C726: E400            NOP                     
	00F1C728: 9800 B5D0 00F1  MOVEI   #$F1B5D0,R00    
	00F1C72E: A402            LOAD    (R00),R02       
	00F1C730: 3442            BTST    $2,R02          
	00F1C732: D4A2            JR      z,$F1C73E       
	00F1C734: E400            NOP                     
	00F1C736: A7FC            LOAD    (R31),R28       
	00F1C738: 8C02            MOVEQ   0,R02           
	00F1C73A: D380            JUMP    (R28)           
	00F1C73C: BC02            STORE   R02,(R00)       
	00F1C73E: 8C1A            MOVEQ   0,R26           
	00F1C740: C47A            STORE   R26,(R14+$C)    
	00F1C742: 8B23            MOVE    R25,R03         
	00F1C744: 980A B400 00F1  MOVEI   #$F1B400,R10    
	00F1C74A: 0839            ADDQ    $1,R25          
	00F1C74C: 980F B410 00F1  MOVEI   #$F1B410,R15    
	00F1C752: C459            STORE   R25,(R14+$8)    
	00F1C754: 8DE2            MOVEQ   15,R02          
	00F1C756: 894E            MOVE    R10,R14         
	00F1C758: BDC2            STORE   R02,(R14)       
	00F1C75A: C422            STORE   R02,(R14+$4)    
	00F1C75C: C442            STORE   R02,(R14+$8)    
	00F1C75E: C462            STORE   R02,(R14+$C)    
	00F1C760: 9800 B49C 00F1  MOVEI   #$F1B49C,R00    
	00F1C766: 9807 043C 0000  MOVEI   #$43C,R07       
	00F1C76C: A41B            LOAD    (R00),R27       
	00F1C76E: 9802 03B8 0000  MOVEI   #$3B8,R02       
	00F1C774: 0367            ADD     R27,R07         
	00F1C776: 005B            ADD     R02,R27         
	00F1C778: 035B            ADD     R26,R27         
	00F1C77A: 9F62            LOADB   (R27),R02       
	00F1C77C: E400            NOP                     
	00F1C77E: 62C2            SHLQ    $A,R02          
	00F1C780: 6383            SHLQ    $4,R03          
	00F1C782: 0047            ADD     R02,R07         
	00F1C784: 8C06            MOVEQ   0,R06           
	00F1C786: 0067            ADD     R03,R07         
	00F1C788: A4FA            LOAD    (R07),R26       
	00F1C78A: 8DE2            MOVEQ   15,R02          
	00F1C78C: 8B43            MOVE    R26,R03         
	00F1C78E: 8B44            MOVE    R26,R04         
	00F1C790: 8B5B            MOVE    R26,R27         
	00F1C792: 6783            SHRQ    $1C,R03         
	00F1C794: 659B            SHRQ    $C,R27          
	00F1C796: 2443            AND     R02,R03         
	00F1C798: 6383            SHLQ    $4,R03          
	00F1C79A: 245B            AND     R02,R27         
	00F1C79C: 287B            OR      R03,R27         
	00F1C79E: 26C4            AND     R22,R04         
	00F1C7A0: 981C C7E4 00F1  MOVEI   #$F1C7E4,R28    
	00F1C7A6: 7C04            CMPQ    $0,R04          
	00F1C7A8: D382            JUMP    z,(R28)         
	00F1C7AA: E400            NOP                     
	00F1C7AC: 9800 B3F4 00F1  MOVEI   #$F1B3F4,R00    
	00F1C7B2: BC01            STORE   R01,(R00)       
	00F1C7B4: BD42            STORE   R02,(R10)       
	00F1C7B6: 9801 B3F0 00F1  MOVEI   #$F1B3F0,R01    
	00F1C7BC: 981C C7DA 00F1  MOVEI   #$F1C7DA,R28    
	00F1C7C2: 8883            MOVE    R04,R03         
	00F1C7C4: 9800 B330 00F1  MOVEI   #$F1B330,R00    
	00F1C7CA: 6503            SHRQ    $8,R03          
	00F1C7CC: 189F            SUBQ    $4,R31          
	00F1C7CE: 63C3            SHLQ    $2,R03          
	00F1C7D0: BFFC            STORE   R28,(R31)       
	00F1C7D2: 0060            ADD     R03,R00         
	00F1C7D4: A41C            LOAD    (R00),R28       
	00F1C7D6: D380            JUMP    (R28)           
	00F1C7D8: E400            NOP                     
	00F1C7DA: 089F            ADDQ    $4,R31          
	00F1C7DC: 9800 B3F4 00F1  MOVEI   #$F1B3F4,R00    
	00F1C7E2: A401            LOAD    (R00),R01       
	00F1C7E4: 981C C9D8 00F1  MOVEI   #$F1C9D8,R28    
	00F1C7EA: D380            JUMP    (R28)           
	00F1C7EC: E400            NOP                     
	00F1C7EE: 2524            AND     R09,R04         
	00F1C7F0: 8C23            MOVEQ   1,R03           
	00F1C7F2: 2004            NEG     R04             
	00F1C7F4: 6304            SHLQ    $8,R04          
	00F1C7F6: A7FC            LOAD    (R31),R28       
	00F1C7F8: 2883            OR      R04,R03         
	00F1C7FA: D380            JUMP    (R28)           
	00F1C7FC: BD43            STORE   R03,(R10)       
	00F1C7FE: 2524            AND     R09,R04         
	00F1C800: 8C43            MOVEQ   2,R03           
	00F1C802: 6304            SHLQ    $8,R04          
	00F1C804: A7FC            LOAD    (R31),R28       
	00F1C806: 2883            OR      R04,R03         
	00F1C808: D380            JUMP    (R28)           
	00F1C80A: BD43            STORE   R03,(R10)       
	00F1C80C: 2524            AND     R09,R04         
	00F1C80E: 7C04            CMPQ    $0,R04          
	00F1C810: B083            LOAD    (R15+$10),R03   
	00F1C812: D461            JR      nz,$F1C81A      
	00F1C814: E400            NOP                     
	00F1C816: 8864            MOVE    R03,R04         
	00F1C818: 6604            SHRQ    $10,R04         
	00F1C81A: 6204            SHLQ    $10,R04         
	00F1C81C: 661A            SHRQ    $10,R26         
	00F1C81E: 7C1A            CMPQ    $0,R26          
	00F1C820: D461            JR      nz,$F1C828      
	00F1C822: E400            NOP                     
	00F1C824: 887A            MOVE    R03,R26         
	00F1C826: 26DA            AND     R22,R26         
	00F1C828: 289A            OR      R04,R26         
	00F1C82A: 8C63            MOVEQ   3,R03           
	00F1C82C: C89A            STORE   R26,(R15+$10)   
	00F1C82E: A7FC            LOAD    (R31),R28       
	00F1C830: BD43            STORE   R03,(R10)       
	00F1C832: D380            JUMP    (R28)           
	00F1C834: 8C1A            MOVEQ   0,R26           
	00F1C836: 8883            MOVE    R04,R03         
	00F1C838: 8DE2            MOVEQ   15,R02          
	00F1C83A: 6484            SHRQ    $4,R04          
	00F1C83C: 2443            AND     R02,R03         
	00F1C83E: 2444            AND     R02,R04         
	00F1C840: 7C03            CMPQ    $0,R03          
	00F1C842: D541            JR      nz,$F1C858      
	00F1C844: E400            NOP                     
	00F1C846: 7C04            CMPQ    $0,R04          
	00F1C848: D4E1            JR      nz,$F1C858      
	00F1C84A: E400            NOP                     
	00F1C84C: B0A3            LOAD    (R15+$14),R03   
	00F1C84E: E400            NOP                     
	00F1C850: 8864            MOVE    R03,R04         
	00F1C852: 6484            SHRQ    $4,R04          
	00F1C854: 2443            AND     R02,R03         
	00F1C856: 2444            AND     R02,R04         
	00F1C858: 6384            SHLQ    $4,R04          
	00F1C85A: 2883            OR      R04,R03         
	00F1C85C: C8A3            STORE   R03,(R15+$14)   
	00F1C85E: E400            NOP                     
	00F1C860: A5E3            LOAD    (R15),R03       
	00F1C862: 8CE2            MOVEQ   7,R02           
	00F1C864: 9804 03E8 0000  MOVEI   #$3E8,R04       
	00F1C86A: 4043            MULT    R02,R03         
	00F1C86C: 5483            DIV     R04,R03         
	00F1C86E: 2863            OR      R03,R03         
	00F1C870: C843            STORE   R03,(R15+$8)    
	00F1C872: A7FC            LOAD    (R31),R28       
	00F1C874: 8C83            MOVEQ   4,R03           
	00F1C876: D380            JUMP    (R28)           
	00F1C878: BD43            STORE   R03,(R10)       
	00F1C87A: 8882            MOVE    R04,R02         
	00F1C87C: A7FC            LOAD    (R31),R28       
	00F1C87E: 8DE3            MOVEQ   15,R03          
	00F1C880: 6484            SHRQ    $4,R04          
	00F1C882: 2462            AND     R03,R02         
	00F1C884: 2464            AND     R03,R04         
	00F1C886: 8CC3            MOVEQ   6,R03           
	00F1C888: 7C04            CMPQ    $0,R04          
	00F1C88A: D4A2            JR      z,$F1C896       
	00F1C88C: E400            NOP                     
	00F1C88E: 6204            SHLQ    $10,R04         
	00F1C890: C8C4            STORE   R04,(R15+$18)   
	00F1C892: D540            JR      $F1C8A8         
	00F1C894: E400            NOP                     
	00F1C896: 7C02            CMPQ    $0,R02          
	00F1C898: D482            JR      z,$F1C8A2       
	00F1C89A: E400            NOP                     
	00F1C89C: 8C83            MOVEQ   4,R03           
	00F1C89E: D480            JR      $F1C8A8         
	00F1C8A0: E400            NOP                     
	00F1C8A2: 2002            NEG     R02             
	00F1C8A4: 6202            SHLQ    $10,R02         
	00F1C8A6: C8C2            STORE   R02,(R15+$18)   
	00F1C8A8: D380            JUMP    (R28)           
	00F1C8AA: BD43            STORE   R03,(R10)       
	00F1C8AC: 2524            AND     R09,R04         
	00F1C8AE: 8D23            MOVEQ   9,R03           
	00F1C8B0: 6204            SHLQ    $10,R04         
	00F1C8B2: 2883            OR      R04,R03         
	00F1C8B4: 28C3            OR      R06,R03         
	00F1C8B6: A7FC            LOAD    (R31),R28       
	00F1C8B8: BC23            STORE   R03,(R01)       
	00F1C8BA: D380            JUMP    (R28)           
	00F1C8BC: 0881            ADDQ    $4,R01          
	00F1C8BE: 8DE2            MOVEQ   15,R02          
	00F1C8C0: 8883            MOVE    R04,R03         
	00F1C8C2: 6484            SHRQ    $4,R04          
	00F1C8C4: A7FC            LOAD    (R31),R28       
	00F1C8C6: 2444            AND     R02,R04         
	00F1C8C8: 2443            AND     R02,R03         
	00F1C8CA: 7C04            CMPQ    $0,R04          
	00F1C8CC: D482            JR      z,$F1C8D6       
	00F1C8CE: E400            NOP                     
	00F1C8D0: 6304            SHLQ    $8,R04          
	00F1C8D2: D520            JR      $F1C8E6         
	00F1C8D4: E400            NOP                     
	00F1C8D6: 7C03            CMPQ    $0,R03          
	00F1C8D8: D461            JR      nz,$F1C8E0      
	00F1C8DA: E400            NOP                     
	00F1C8DC: D380            JUMP    (R28)           
	00F1C8DE: E400            NOP                     
	00F1C8E0: 8864            MOVE    R03,R04         
	00F1C8E2: 2004            NEG     R04             
	00F1C8E4: 6304            SHLQ    $8,R04          
	00F1C8E6: 8D43            MOVEQ   10,R03          
	00F1C8E8: 2883            OR      R04,R03         
	00F1C8EA: D380            JUMP    (R28)           
	00F1C8EC: BD43            STORE   R03,(R10)       
	00F1C8EE: 2524            AND     R09,R04         
	00F1C8F0: A7FC            LOAD    (R31),R28       
	00F1C8F2: 9800 B3F8 00F1  MOVEI   #$F1B3F8,R00    
	00F1C8F8: 0824            ADDQ    $1,R04          
	00F1C8FA: D380            JUMP    (R28)           
	00F1C8FC: BC04            STORE   R04,(R00)       
	00F1C8FE: 2524            AND     R09,R04         
	00F1C900: 8C63            MOVEQ   3,R03           
	00F1C902: 6304            SHLQ    $8,R04          
	00F1C904: 28C3            OR      R06,R03         
	00F1C906: 2883            OR      R04,R03         
	00F1C908: A7FC            LOAD    (R31),R28       
	00F1C90A: BC23            STORE   R03,(R01)       
	00F1C90C: D380            JUMP    (R28)           
	00F1C90E: 0881            ADDQ    $4,R01          
	00F1C910: 2524            AND     R09,R04         
	00F1C912: 9800 B3FC 00F1  MOVEI   #$F1B3FC,R00    
	00F1C918: A7FC            LOAD    (R31),R28       
	00F1C91A: 0824            ADDQ    $1,R04          
	00F1C91C: D380            JUMP    (R28)           
	00F1C91E: BC04            STORE   R04,(R00)       
	00F1C920: 2524            AND     R09,R04         
	00F1C922: 9802 B3B0 00F1  MOVEI   #$F1B3B0,R02    
	00F1C928: 8883            MOVE    R04,R03         
	00F1C92A: 6483            SHRQ    $4,R03          
	00F1C92C: 63C3            SHLQ    $2,R03          
	00F1C92E: 0062            ADD     R03,R02         
	00F1C930: A443            LOAD    (R02),R03       
	00F1C932: D060            JUMP    (R03)           
	00F1C934: E400            NOP                     
	00F1C936: 8FE3            MOVEQ   31,R03          
	00F1C938: 2524            AND     R09,R04         
	00F1C93A: 0823            ADDQ    $1,R03          
	00F1C93C: A7FC            LOAD    (R31),R28       
	00F1C93E: 8882            MOVE    R04,R02         
	00F1C940: 1083            SUB     R04,R03         
	00F1C942: D5F4            JR      nn,$F1C962      
	00F1C944: E400            NOP                     
	00F1C946: 9802 B4A8 00F1  MOVEI   #$F1B4A8,R02    
	00F1C94C: 1804            SUBQ    $20,R04         
	00F1C94E: A442            LOAD    (R02),R02       
	00F1C950: 63C4            SHLQ    $2,R04          
	00F1C952: 9803 0004 00F1  MOVEI   #$F10004,R03    
	00F1C958: 0082            ADD     R04,R02         
	00F1C95A: A442            LOAD    (R02),R02       
	00F1C95C: BC62            STORE   R02,(R03)       
	00F1C95E: D380            JUMP    (R28)           
	00F1C960: E400            NOP                     
	00F1C962: 9800 B4AC 00F1  MOVEI   #$F1B4AC,R00    
	00F1C968: 1824            SUBQ    $1,R04          
	00F1C96A: 0880            ADDQ    $4,R00          
	00F1C96C: D380            JUMP    (R28)           
	00F1C96E: BC04            STORE   R04,(R00)       
	00F1C970: A7FC            LOAD    (R31),R28       
	00F1C972: D380            JUMP    (R28)           
	00F1C974: E400            NOP                     
	00F1C976: 8DE2            MOVEQ   15,R02          
	00F1C978: 8883            MOVE    R04,R03         
	00F1C97A: A5EA            LOAD    (R15),R10       
	00F1C97C: 2444            AND     R02,R04         
	00F1C97E: A7FC            LOAD    (R31),R28       
	00F1C980: 34A3            BTST    $5,R03          
	00F1C982: D441            JR      nz,$F1C988      
	00F1C984: E400            NOP                     
	00F1C986: 2004            NEG     R04             
	00F1C988: 008A            ADD     R04,R10         
	00F1C98A: 9802 011A 0000  MOVEI   #$11A,R02       
	00F1C990: BDEA            STORE   R10,(R15)       
	00F1C992: 404A            MULT    R02,R10         
	00F1C994: 294A            OR      R10,R10         
	00F1C996: 9802 6500 1DCD  MOVEI   #$1DCD6500,R02  
	00F1C99C: 5542            DIV     R10,R02         
	00F1C99E: 2842            OR      R02,R02         
	00F1C9A0: 8CE3            MOVEQ   7,R03           
	00F1C9A2: 6202            SHLQ    $10,R02         
	00F1C9A4: 28C3            OR      R06,R03         
	00F1C9A6: 2843            OR      R02,R03         
	00F1C9A8: BC23            STORE   R03,(R01)       
	00F1C9AA: D380            JUMP    (R28)           
	00F1C9AC: 0881            ADDQ    $4,R01          
	00F1C9AE: 8DE2            MOVEQ   15,R02          
	00F1C9B0: 8C63            MOVEQ   3,R03           
	00F1C9B2: 2444            AND     R02,R04         
	00F1C9B4: 28C3            OR      R06,R03         
	00F1C9B6: 6204            SHLQ    $10,R04         
	00F1C9B8: 2883            OR      R04,R03         
	00F1C9BA: A7FC            LOAD    (R31),R28       
	00F1C9BC: BC23            STORE   R03,(R01)       
	00F1C9BE: D380            JUMP    (R28)           
	00F1C9C0: 0881            ADDQ    $4,R01          
	00F1C9C2: 8DE2            MOVEQ   15,R02          
	00F1C9C4: 8C63            MOVEQ   3,R03           
	00F1C9C6: 2444            AND     R02,R04         
	00F1C9C8: 28C3            OR      R06,R03         
	00F1C9CA: 2004            NEG     R04             
	00F1C9CC: 6204            SHLQ    $10,R04         
	00F1C9CE: 2883            OR      R04,R03         
	00F1C9D0: A7FC            LOAD    (R31),R28       
	00F1C9D2: BC23            STORE   R03,(R01)       
	00F1C9D4: D380            JUMP    (R28)           
	00F1C9D6: 0881            ADDQ    $4,R01          
	00F1C9D8: 661A            SHRQ    $10,R26         
	00F1C9DA: 26DA            AND     R22,R26         
	00F1C9DC: 981C CA76 00F1  MOVEI   #$F1CA76,R28    
	00F1C9E2: 7C1B            CMPQ    $0,R27          
	00F1C9E4: D501            JR      nz,$F1C9F6      
	00F1C9E6: E400            NOP                     
	00F1C9E8: 7C1A            CMPQ    $0,R26          
	00F1C9EA: D382            JUMP    z,(R28)         
	00F1C9EC: E400            NOP                     
	00F1C9EE: B07B            LOAD    (R15+$C),R27    
	00F1C9F0: 8C38            MOVEQ   1,R24           
	00F1C9F2: D460            JR      $F1C9FA         
	00F1C9F4: E400            NOP                     
	00F1C9F6: C87B            STORE   R27,(R15+$C)    
	00F1C9F8: 8C18            MOVEQ   0,R24           
	00F1C9FA: 7C1A            CMPQ    $0,R26          
	00F1C9FC: D382            JUMP    z,(R28)         
	00F1C9FE: E400            NOP                     
	00F1CA00: 8B63            MOVE    R27,R03         
	00F1CA02: 1823            SUBQ    $1,R03          
	00F1CA04: 9802 B4EC 00F1  MOVEI   #$F1B4EC,R02    
	00F1CA0A: 63C3            SHLQ    $2,R03          
	00F1CA0C: 0062            ADD     R03,R02         
	00F1CA0E: A443            LOAD    (R02),R03       
	00F1CA10: 9802 011A 0000  MOVEI   #$11A,R02       
	00F1CA16: BDFA            STORE   R26,(R15)       
	00F1CA18: 405A            MULT    R02,R26         
	00F1CA1A: 980B 6500 1DCD  MOVEI   #$1DCD6500,R11  
	00F1CA20: 574B            DIV     R26,R11         
	00F1CA22: 296B            OR      R11,R11         
	00F1CA24: 7C03            CMPQ    $0,R03          
	00F1CA26: D5A2            JR      z,$F1CA42       
	00F1CA28: 89C0            MOVE    R14,R00         
	00F1CA2A: 63C3            SHLQ    $2,R03          
	00F1CA2C: 980E BECC 00F1  MOVEI   #$F1BECC,R14    
	00F1CA32: E862            LOAD    (R14+R03),R02   
	00F1CA34: A5FA            LOAD    (R15),R26       
	00F1CA36: 404B            MULT    R02,R11         
	00F1CA38: 6602            SHRQ    $10,R02         
	00F1CA3A: 405A            MULT    R02,R26         
	00F1CA3C: 65FA            SHRQ    $F,R26          
	00F1CA3E: BDFA            STORE   R26,(R15)       
	00F1CA40: 65EB            SHRQ    $F,R11          
	00F1CA42: 880E            MOVE    R00,R14         
	00F1CA44: 183B            SUBQ    $1,R27          
	00F1CA46: 620B            SHLQ    $10,R11         
	00F1CA48: 8DE2            MOVEQ   15,R02          
	00F1CA4A: 7C38            CMPQ    $1,R24          
	00F1CA4C: D541            JR      nz,$F1CA62      
	00F1CA4E: E400            NOP                     
	00F1CA50: 8D23            MOVEQ   9,R03           
	00F1CA52: 28C3            OR      R06,R03         
	00F1CA54: BC23            STORE   R03,(R01)       
	00F1CA56: 0881            ADDQ    $4,R01          
	00F1CA58: 8CE3            MOVEQ   7,R03           
	00F1CA5A: 8C1B            MOVEQ   0,R27           
	00F1CA5C: 8C18            MOVEQ   0,R24           
	00F1CA5E: D460            JR      $F1CA66         
	00F1CA60: E400            NOP                     
	00F1CA62: 8C83            MOVEQ   4,R03           
	00F1CA64: 631B            SHLQ    $8,R27          
	00F1CA66: 287B            OR      R03,R27         
	00F1CA68: 28DB            OR      R06,R27         
	00F1CA6A: 297B            OR      R11,R27         
	00F1CA6C: BC3B            STORE   R27,(R01)       
	00F1CA6E: BD42            STORE   R02,(R10)       
	00F1CA70: 0881            ADDQ    $4,R01          
	00F1CA72: D500            JR      $F1CA84         
	00F1CA74: E400            NOP                     
	00F1CA76: 7C1B            CMPQ    $0,R27          
	00F1CA78: D4A2            JR      z,$F1CA84       
	00F1CA7A: E400            NOP                     
	00F1CA7C: 8D1B            MOVEQ   8,R27           
	00F1CA7E: 28DB            OR      R06,R27         
	00F1CA80: BC3B            STORE   R27,(R01)       
	00F1CA82: 0881            ADDQ    $4,R01          
	00F1CA84: 9800 B3F0 00F1  MOVEI   #$F1B3F0,R00    
	00F1CA8A: 8C03            MOVEQ   0,R03           
	00F1CA8C: A402            LOAD    (R00),R02       
	00F1CA8E: 7C02            CMPQ    $0,R02          
	00F1CA90: D482            JR      z,$F1CA9A       
	00F1CA92: E400            NOP                     
	00F1CA94: BC22            STORE   R02,(R01)       
	00F1CA96: BC03            STORE   R03,(R00)       
	00F1CA98: 0881            ADDQ    $4,R01          
	00F1CA9A: 981C C788 00F1  MOVEI   #$F1C788,R28    
	00F1CAA0: 6486            SHRQ    $4,R06          
	00F1CAA2: 0826            ADDQ    $1,R06          
	00F1CAA4: 0887            ADDQ    $4,R07          
	00F1CAA6: 088A            ADDQ    $4,R10          
	00F1CAA8: 080F            ADDQ    $20,R15         
	00F1CAAA: 7C86            CMPQ    $4,R06          
	00F1CAAC: D381            JUMP    nz,(R28)        
	00F1CAAE: 6386            SHLQ    $4,R06          
	00F1CAB0: 9800 B400 00F1  MOVEI   #$F1B400,R00    
	00F1CAB6: 980F B410 00F1  MOVEI   #$F1B410,R15    
	00F1CABC: 8C06            MOVEQ   0,R06           
	00F1CABE: A402            LOAD    (R00),R02       
	00F1CAC0: E400            NOP                     
	00F1CAC2: 8843            MOVE    R02,R03         
	00F1CAC4: 2522            AND     R09,R02         
	00F1CAC6: 7DE2            CMPQ    $F,R02          
	00F1CAC8: D5E2            JR      z,$F1CAE8       
	00F1CACA: E400            NOP                     
	00F1CACC: 981C CAE6 00F1  MOVEI   #$F1CAE6,R28    
	00F1CAD2: 981B B370 00F1  MOVEI   #$F1B370,R27    
	00F1CAD8: 189F            SUBQ    $4,R31          
	00F1CADA: 63C2            SHLQ    $2,R02          
	00F1CADC: BFFC            STORE   R28,(R31)       
	00F1CADE: 005B            ADD     R02,R27         
	00F1CAE0: A77C            LOAD    (R27),R28       
	00F1CAE2: D380            JUMP    (R28)           
	00F1CAE4: E400            NOP                     
	00F1CAE6: 089F            ADDQ    $4,R31          
	00F1CAE8: 0826            ADDQ    $1,R06          
	00F1CAEA: 0880            ADDQ    $4,R00          
	00F1CAEC: 080F            ADDQ    $20,R15         
	00F1CAEE: 981C CABE 00F1  MOVEI   #$F1CABE,R28    
	00F1CAF4: 7C86            CMPQ    $4,R06          
	00F1CAF6: D381            JUMP    nz,(R28)        
	00F1CAF8: E400            NOP                     
	00F1CAFA: 8C03            MOVEQ   0,R03           
	00F1CAFC: BC23            STORE   R03,(R01)       
	00F1CAFE: E400            NOP                     
	00F1CB00: 9801 B56C 00F1  MOVEI   #$F1B56C,R01    
	00F1CB06: A7FC            LOAD    (R31),R28       
	00F1CB08: 9800 B5CC 00F1  MOVEI   #$F1B5CC,R00    
	00F1CB0E: D380            JUMP    (R28)           
	00F1CB10: BC01            STORE   R01,(R00)       
	00F1CB12: A7FC            LOAD    (R31),R28       
	00F1CB14: D380            JUMP    (R28)           
	00F1CB16: E400            NOP                     
	00F1CB18: A5FA            LOAD    (R15),R26       
	00F1CB1A: 6D03            SHARQ   $8,R03          
	00F1CB1C: 9802 011A 0000  MOVEI   #$11A,R02       
	00F1CB22: 007A            ADD     R03,R26         
	00F1CB24: BDFA            STORE   R26,(R15)       
	00F1CB26: 9803 6500 1DCD  MOVEI   #$1DCD6500,R03  
	00F1CB2C: 405A            MULT    R02,R26         
	00F1CB2E: A7FC            LOAD    (R31),R28       
	00F1CB30: 2B5A            OR      R26,R26         
	00F1CB32: 5743            DIV     R26,R03         
	00F1CB34: 2863            OR      R03,R03         
	00F1CB36: 6203            SHLQ    $10,R03         
	00F1CB38: 88C2            MOVE    R06,R02         
	00F1CB3A: 8CFB            MOVEQ   7,R27           
	00F1CB3C: 6382            SHLQ    $4,R02          
	00F1CB3E: 287B            OR      R03,R27         
	00F1CB40: 285B            OR      R02,R27         
	00F1CB42: BC3B            STORE   R27,(R01)       
	00F1CB44: E400            NOP                     
	00F1CB46: D380            JUMP    (R28)           
	00F1CB48: 0881            ADDQ    $4,R01          
	00F1CB4A: A5FA            LOAD    (R15),R26       
	00F1CB4C: B083            LOAD    (R15+$10),R03   
	00F1CB4E: A7FC            LOAD    (R31),R28       
	00F1CB50: 8862            MOVE    R03,R02         
	00F1CB52: 26C3            AND     R22,R03         
	00F1CB54: 6602            SHRQ    $10,R02         
	00F1CB56: 981B CBA2 00F1  MOVEI   #$F1CBA2,R27    
	00F1CB5C: 7B43            CMP     R26,R03         
	00F1CB5E: D362            JUMP    z,(R27)         
	00F1CB60: E400            NOP                     
	00F1CB62: D4F8            JR      n,$F1CB72       
	00F1CB64: E400            NOP                     
	00F1CB66: 005A            ADD     R02,R26         
	00F1CB68: 7B43            CMP     R26,R03         
	00F1CB6A: D514            JR      nn,$F1CB7C      
	00F1CB6C: E400            NOP                     
	00F1CB6E: D4A0            JR      $F1CB7A         
	00F1CB70: E400            NOP                     
	00F1CB72: 105A            SUB     R02,R26         
	00F1CB74: 7B43            CMP     R26,R03         
	00F1CB76: D458            JR      n,$F1CB7C       
	00F1CB78: E400            NOP                     
	00F1CB7A: 887A            MOVE    R03,R26         
	00F1CB7C: 9802 011A 0000  MOVEI   #$11A,R02       
	00F1CB82: BDFA            STORE   R26,(R15)       
	00F1CB84: 405A            MULT    R02,R26         
	00F1CB86: 9803 6500 1DCD  MOVEI   #$1DCD6500,R03  
	00F1CB8C: 2B5A            OR      R26,R26         
	00F1CB8E: 5743            DIV     R26,R03         
	00F1CB90: 2863            OR      R03,R03         
	00F1CB92: 88C2            MOVE    R06,R02         
	00F1CB94: 6203            SHLQ    $10,R03         
	00F1CB96: 8CFB            MOVEQ   7,R27           
	00F1CB98: 6382            SHLQ    $4,R02          
	00F1CB9A: 287B            OR      R03,R27         
	00F1CB9C: 285B            OR      R02,R27         
	00F1CB9E: BC3B            STORE   R27,(R01)       
	00F1CBA0: E400            NOP                     
	00F1CBA2: D380            JUMP    (R28)           
	00F1CBA4: 0881            ADDQ    $4,R01          
	00F1CBA6: A5FA            LOAD    (R15),R26       
	00F1CBA8: B0A2            LOAD    (R15+$14),R02   
	00F1CBAA: 9803 CBE0 00F1  MOVEI   #$F1CBE0,R03    
	00F1CBB0: 885B            MOVE    R02,R27         
	00F1CBB2: 8DE4            MOVEQ   15,R04          
	00F1CBB4: A7FC            LOAD    (R31),R28       
	00F1CBB6: 6462            SHRQ    $3,R02          
	00F1CBB8: 249B            AND     R04,R27         
	00F1CBBA: 3C02            BCLR    $0,R02          
	00F1CBBC: 1043            SUB     R02,R03         
	00F1CBBE: B022            LOAD    (R15+$4),R02    
	00F1CBC0: D060            JUMP    (R03)           
	00F1CBC2: E400            NOP                     
	00F1CBC4: FD02            ADDQMOD $8,R02          
	00F1CBC6: FD02            ADDQMOD $8,R02          
	00F1CBC8: FD02            ADDQMOD $8,R02          
	00F1CBCA: FD02            ADDQMOD $8,R02          
	00F1CBCC: FD02            ADDQMOD $8,R02          
	00F1CBCE: FD02            ADDQMOD $8,R02          
	00F1CBD0: FD02            ADDQMOD $8,R02          
	00F1CBD2: FD02            ADDQMOD $8,R02          
	00F1CBD4: FD02            ADDQMOD $8,R02          
	00F1CBD6: FD02            ADDQMOD $8,R02          
	00F1CBD8: FD02            ADDQMOD $8,R02          
	00F1CBDA: FD02            ADDQMOD $8,R02          
	00F1CBDC: FD02            ADDQMOD $8,R02          
	00F1CBDE: FD02            ADDQMOD $8,R02          
	00F1CBE0: FD02            ADDQMOD $8,R02          
	00F1CBE2: C822            STORE   R02,(R15+$4)    
	00F1CBE4: 9803 D200 00F1  MOVEI   #$F1D200,R03    
	00F1CBEA: 0043            ADD     R02,R03         
	00F1CBEC: A463            LOAD    (R03),R03       
	00F1CBEE: B044            LOAD    (R15+$8),R04    
	00F1CBF0: 4763            IMULT   R27,R03         
	00F1CBF2: 6C83            SHARQ   $4,R03          
	00F1CBF4: 4483            IMULT   R04,R03         
	00F1CBF6: 6D63            SHARQ   $B,R03          
	00F1CBF8: 007A            ADD     R03,R26         
	00F1CBFA: 9802 011A 0000  MOVEI   #$11A,R02       
	00F1CC00: 9803 6500 1DCD  MOVEI   #$1DCD6500,R03  
	00F1CC06: 405A            MULT    R02,R26         
	00F1CC08: 2B5A            OR      R26,R26         
	00F1CC0A: 5743            DIV     R26,R03         
	00F1CC0C: 2863            OR      R03,R03         
	00F1CC0E: 6203            SHLQ    $10,R03         
	00F1CC10: 88C2            MOVE    R06,R02         
	00F1CC12: 8CFB            MOVEQ   7,R27           
	00F1CC14: 6382            SHLQ    $4,R02          
	00F1CC16: 287B            OR      R03,R27         
	00F1CC18: 285B            OR      R02,R27         
	00F1CC1A: BC3B            STORE   R27,(R01)       
	00F1CC1C: D380            JUMP    (R28)           
	00F1CC1E: 0881            ADDQ    $4,R01          
	00F1CC20: 88C2            MOVE    R06,R02         
	00F1CC22: 8C7B            MOVEQ   3,R27           
	00F1CC24: 6382            SHLQ    $4,R02          
	00F1CC26: B0DA            LOAD    (R15+$18),R26   
	00F1CC28: 285B            OR      R02,R27         
	00F1CC2A: 981C CBA6 00F1  MOVEI   #$F1CBA6,R28    
	00F1CC30: 2B5B            OR      R26,R27         
	00F1CC32: BC3B            STORE   R27,(R01)       
	00F1CC34: D380            JUMP    (R28)           
	00F1CC36: 0881            ADDQ    $4,R01          
	00F1CC38: 6D03            SHARQ   $8,R03          
	00F1CC3A: 88C2            MOVE    R06,R02         
	00F1CC3C: 8C7B            MOVEQ   3,R27           
	00F1CC3E: 6203            SHLQ    $10,R03         
	00F1CC40: 6382            SHLQ    $4,R02          
	00F1CC42: 287B            OR      R03,R27         
	00F1CC44: 285B            OR      R02,R27         
	00F1CC46: A7FC            LOAD    (R31),R28       
	00F1CC48: BC3B            STORE   R27,(R01)       
	00F1CC4A: E400            NOP                     
	00F1CC4C: D380            JUMP    (R28)           
	00F1CC4E: 0881            ADDQ    $4,R01          
	00F1CC50: 0000            ADD     R00,R00         
	00F1CC52: 00EE            ADD     R07,R14         
	00F1CC54: 0000            ADD     R00,R00         
	00F1CC56: 0000            ADD     R00,R00         
	00F1CC58: 0000            ADD     R00,R00         
	00F1CC5A: 0000            ADD     R00,R00         
	00F1CC5C: 9801 4000 00F1  MOVEI   #$F14000,R01    
	00F1CC62: 9808 817E 0000  MOVEI   #$817E,R08      
	00F1CC68: 9802 FFF0 00FF  MOVEI   #$FFFFF0,R02    
	00F1CC6E: 8C87            MOVEQ   4,R07           
	00F1CC70: 8C00            MOVEQ   0,R00           
	00F1CC72: 6387            SHLQ    $4,R07          
	00F1CC74: B828            STOREW  R08,(R01)       
	00F1CC76: 1827            SUBQ    $1,R07          
	00F1CC78: 1820            SUBQ    $1,R00          
	00F1CC7A: 00E8            ADD     R07,R08         
	00F1CC7C: A42C            LOAD    (R01),R12       
	00F1CC7E: 6427            SHRQ    $1,R07          
	00F1CC80: B828            STOREW  R08,(R01)       
	00F1CC82: 1827            SUBQ    $1,R07          
	00F1CC84: A424            LOAD    (R01),R04       
	00F1CC86: 00E8            ADD     R07,R08         
	00F1CC88: 8806            MOVE    R00,R06         
	00F1CC8A: B828            STOREW  R08,(R01)       
	00F1CC8C: E400            NOP                     
	00F1CC8E: A425            LOAD    (R01),R05       
	00F1CC90: 0988            ADDQ    $C,R08          
	00F1CC92: E400            NOP                     
	00F1CC94: B828            STOREW  R08,(R01)       
	00F1CC96: E400            NOP                     
	00F1CC98: A42D            LOAD    (R01),R13       
	00F1CC9A: E400            NOP                     
	00F1CC9C: 284C            OR      R02,R12         
	00F1CC9E: 2844            OR      R02,R04         
	00F1CCA0: 2845            OR      R02,R05         
	00F1CCA2: 284D            OR      R02,R13         
	00F1CCA4: 2480            AND     R04,R00         
	00F1CCA6: 24A6            AND     R05,R06         
	00F1CCA8: 7680            RORQ    $14,R00         
	00F1CCAA: 7686            RORQ    $14,R06         
	00F1CCAC: 2580            AND     R12,R00         
	00F1CCAE: 25A6            AND     R13,R06         
	00F1CCB0: 7700            RORQ    $18,R00         
	00F1CCB2: 7706            RORQ    $18,R06         
	00F1CCB4: 9802 F30F 0020  MOVEI   #$20F30F,R02    
	00F1CCBA: 9803 0CF0 008F  MOVEI   #$8F0CF0,R03    
	00F1CCC0: 3000            NOT     R00             
	00F1CCC2: 3006            NOT     R06             
	00F1CCC4: 88D6            MOVE    R06,R22         
	00F1CCC6: 8815            MOVE    R00,R21         
	00F1CCC8: 2456            AND     R02,R22         
	00F1CCCA: 2455            AND     R02,R21         
	00F1CCCC: 3536            BTST    $9,R22          
	00F1CCCE: D462            JR      z,$F1CCD6       
	00F1CCD0: E400            NOP                     
	00F1CCD2: 3D36            BCLR    $9,R22          
	00F1CCD4: 38F6            BSET    $7,R22          
	00F1CCD6: 6396            SHLQ    $4,R22          
	00F1CCD8: 2460            AND     R03,R00         
	00F1CCDA: 2AD5            OR      R22,R21         
	00F1CCDC: 3540            BTST    $A,R00          
	00F1CCDE: D462            JR      z,$F1CCE6       
	00F1CCE0: E400            NOP                     
	00F1CCE2: 3D40            BCLR    $A,R00          
	00F1CCE4: 3980            BSET    $C,R00          
	00F1CCE6: 3560            BTST    $B,R00          
	00F1CCE8: D462            JR      z,$F1CCF0       
	00F1CCEA: E400            NOP                     
	00F1CCEC: 3D60            BCLR    $B,R00          
	00F1CCEE: 39A0            BSET    $D,R00          
	00F1CCF0: 36E0            BTST    $17,R00         
	00F1CCF2: D442            JR      z,$F1CCF8       
	00F1CCF4: 3EE0            BCLR    $17,R00         
	00F1CCF6: 3B20            BSET    $19,R00         
	00F1CCF8: 2466            AND     R03,R06         
	00F1CCFA: 6480            SHRQ    $4,R00          
	00F1CCFC: 36E6            BTST    $17,R06         
	00F1CCFE: D442            JR      z,$F1CD04       
	00F1CD00: 3EE6            BCLR    $17,R06         
	00F1CD02: 3B26            BSET    $19,R06         
	00F1CD04: 28C0            OR      R06,R00         
	00F1CD06: 980E CC54 00F1  MOVEI   #$F1CC54,R14    
	00F1CD0C: BDD5            STORE   R21,(R14)       
	00F1CD0E: C420            STORE   R00,(R14+$4)    
	00F1CD10: A7F9            LOAD    (R31),R25       
	00F1CD12: E400            NOP                     
	00F1CD14: D320            JUMP    (R25)           
	00F1CD16: 089F            ADDQ    $4,R31          
	00F1CD18: 0001            ADD     R00,R01         
	00F1CD1A: 0000            ADD     R00,R00         
	00F1CD1C: 0000            ADD     R00,R00         
	00F1CD1E: 0000            ADD     R00,R00         
	00F1CD20: 0000            ADD     R00,R00         
	00F1CD22: 0000            ADD     R00,R00         
	00F1CD24: 0000            ADD     R00,R00         
	00F1CD26: 0000            ADD     R00,R00         
	00F1CD28: 0000            ADD     R00,R00         
	00F1CD2A: 0000            ADD     R00,R00         
	00F1CD2C: 0000            ADD     R00,R00         
	00F1CD2E: 0000            ADD     R00,R00         
	00F1CD30: 0000            ADD     R00,R00         
	00F1CD32: 0000            ADD     R00,R00         
	00F1CD34: 0000            ADD     R00,R00         
	00F1CD36: 0000            ADD     R00,R00         
	00F1CD38: 0000            ADD     R00,R00         
	00F1CD3A: 0000            ADD     R00,R00         
	00F1CD3C: 0000            ADD     R00,R00         
	00F1CD3E: 0000            ADD     R00,R00         
	00F1CD40: 0000            ADD     R00,R00         
	00F1CD42: 0000            ADD     R00,R00         
	00F1CD44: 0000            ADD     R00,R00         
	00F1CD46: 0000            ADD     R00,R00         
	00F1CD48: 0000            ADD     R00,R00         
	00F1CD4A: 0000            ADD     R00,R00         
	00F1CD4C: 0000            ADD     R00,R00         
	00F1CD4E: 0000            ADD     R00,R00         
	00F1CD50: 0000            ADD     R00,R00         
	00F1CD52: 0000            ADD     R00,R00         
	00F1CD54: 0000            ADD     R00,R00         
	00F1CD56: 0000            ADD     R00,R00         
	00F1CD58: 0000            ADD     R00,R00         
	00F1CD5A: 0000            ADD     R00,R00         
	00F1CD5C: 0000            ADD     R00,R00         
	00F1CD5E: 0000            ADD     R00,R00         
	00F1CD60: 0000            ADD     R00,R00         
	00F1CD62: 0000            ADD     R00,R00         
	00F1CD64: 0000            ADD     R00,R00         
	00F1CD66: 0000            ADD     R00,R00         
	00F1CD68: 0000            ADD     R00,R00         
	00F1CD6A: 0000            ADD     R00,R00         
	00F1CD6C: 0000            ADD     R00,R00         
	00F1CD6E: 0000            ADD     R00,R00         
	00F1CD70: 0000            ADD     R00,R00         
	00F1CD72: 0000            ADD     R00,R00         
	00F1CD74: 0000            ADD     R00,R00         
	00F1CD76: 0000            ADD     R00,R00         
	00F1CD78: 0000            ADD     R00,R00         
	00F1CD7A: 0000            ADD     R00,R00         
	00F1CD7C: 0000            ADD     R00,R00         
	00F1CD7E: 0000            ADD     R00,R00         
	00F1CD80: 0000            ADD     R00,R00         
	00F1CD82: 0000            ADD     R00,R00         
	00F1CD84: 0000            ADD     R00,R00         
	00F1CD86: 0000            ADD     R00,R00         
	00F1CD88: 0000            ADD     R00,R00         
	00F1CD8A: 0000            ADD     R00,R00         
	00F1CD8C: 0000            ADD     R00,R00         
	00F1CD8E: 0000            ADD     R00,R00         
	00F1CD90: 0000            ADD     R00,R00         
	00F1CD92: 0000            ADD     R00,R00         
	00F1CD94: 0000            ADD     R00,R00         
	00F1CD96: 0000            ADD     R00,R00         
	00F1CD98: 0000            ADD     R00,R00         
	00F1CD9A: 0000            ADD     R00,R00         
	00F1CD9C: 0000            ADD     R00,R00         
	00F1CD9E: 0000            ADD     R00,R00         
	00F1CDA0: 0000            ADD     R00,R00         
	00F1CDA2: 0000            ADD     R00,R00         
	00F1CDA4: 0000            ADD     R00,R00         
	00F1CDA6: 0000            ADD     R00,R00         
	00F1CDA8: 0000            ADD     R00,R00         
	00F1CDAA: 0000            ADD     R00,R00         
	00F1CDAC: 0000            ADD     R00,R00         
	00F1CDAE: 0000            ADD     R00,R00         
	00F1CDB0: 0000            ADD     R00,R00         
	00F1CDB2: 0000            ADD     R00,R00         
	00F1CDB4: 0000            ADD     R00,R00         
	00F1CDB6: 0000            ADD     R00,R00         
	00F1CDB8: 0000            ADD     R00,R00         
	00F1CDBA: 0000            ADD     R00,R00         
	00F1CDBC: 0000            ADD     R00,R00         
	00F1CDBE: 0000            ADD     R00,R00         
	00F1CDC0: 0000            ADD     R00,R00         
	00F1CDC2: 0000            ADD     R00,R00         
	00F1CDC4: 0000            ADD     R00,R00         
	00F1CDC6: 0000            ADD     R00,R00         
	00F1CDC8: 0000            ADD     R00,R00         
	00F1CDCA: 0000            ADD     R00,R00         
	00F1CDCC: 0000            ADD     R00,R00         
	00F1CDCE: 0000            ADD     R00,R00         
	00F1CDD0: 0000            ADD     R00,R00         
	00F1CDD2: 0000            ADD     R00,R00         
	00F1CDD4: 0000            ADD     R00,R00         
	00F1CDD6: 0000            ADD     R00,R00         
	00F1CDD8: 0000            ADD     R00,R00         
	00F1CDDA: 0000            ADD     R00,R00         
	00F1CDDC: 0000            ADD     R00,R00         
	00F1CDDE: 0000            ADD     R00,R00         
	00F1CDE0: 0000            ADD     R00,R00         
	00F1CDE2: 0000            ADD     R00,R00         
	00F1CDE4: 0000            ADD     R00,R00         
	00F1CDE6: 0000            ADD     R00,R00         
	00F1CDE8: 0000            ADD     R00,R00         
	00F1CDEA: 0000            ADD     R00,R00         
	00F1CDEC: 0000            ADD     R00,R00         
	00F1CDEE: 0000            ADD     R00,R00         
	00F1CDF0: 0000            ADD     R00,R00         
	00F1CDF2: 0000            ADD     R00,R00         
	00F1CDF4: 0000            ADD     R00,R00         
	00F1CDF6: 0000            ADD     R00,R00         
	00F1CDF8: 0000            ADD     R00,R00         
	00F1CDFA: 0000            ADD     R00,R00         
	00F1CDFC: 0000            ADD     R00,R00         
	00F1CDFE: 0000            ADD     R00,R00         
	00F1CE00: 0000            ADD     R00,R00         
	00F1CE02: 0000            ADD     R00,R00         
	00F1CE04: 0000            ADD     R00,R00         
	00F1CE06: 0000            ADD     R00,R00         
	00F1CE08: 0000            ADD     R00,R00         
	00F1CE0A: 0000            ADD     R00,R00         
	00F1CE0C: 0000            ADD     R00,R00         
	00F1CE0E: 0000            ADD     R00,R00         
	00F1CE10: 0000            ADD     R00,R00         
	00F1CE12: 0000            ADD     R00,R00         
	00F1CE14: 0000            ADD     R00,R00         
	00F1CE16: 0000            ADD     R00,R00         
	00F1CE18: 0000            ADD     R00,R00         
	00F1CE1A: 0000            ADD     R00,R00         
	00F1CE1C: 0000            ADD     R00,R00         
	00F1CE1E: 0000            ADD     R00,R00         
	00F1CE20: 0000            ADD     R00,R00         
	00F1CE22: 0000            ADD     R00,R00         
	00F1CE24: 0000            ADD     R00,R00         
	00F1CE26: 0000            ADD     R00,R00         
	00F1CE28: 0000            ADD     R00,R00         
	00F1CE2A: 0000            ADD     R00,R00         
	00F1CE2C: 0000            ADD     R00,R00         
	00F1CE2E: 0000            ADD     R00,R00         
	00F1CE30: 0000            ADD     R00,R00         
	00F1CE32: 0000            ADD     R00,R00         
	00F1CE34: 0000            ADD     R00,R00         
	00F1CE36: 0000            ADD     R00,R00         
	00F1CE38: 0000            ADD     R00,R00         
	00F1CE3A: 0000            ADD     R00,R00         
	00F1CE3C: 0000            ADD     R00,R00         
	00F1CE3E: 0000            ADD     R00,R00         
	00F1CE40: 0000            ADD     R00,R00         
	00F1CE42: 0000            ADD     R00,R00         
	00F1CE44: 0000            ADD     R00,R00         
	00F1CE46: 0000            ADD     R00,R00         
	00F1CE48: 0000            ADD     R00,R00         
	00F1CE4A: 0000            ADD     R00,R00         
	00F1CE4C: 0000            ADD     R00,R00         
	00F1CE4E: 0000            ADD     R00,R00         
	00F1CE50: 0000            ADD     R00,R00         
	00F1CE52: 0000            ADD     R00,R00         
	00F1CE54: 0000            ADD     R00,R00         
	00F1CE56: 0000            ADD     R00,R00         
	00F1CE58: 0000            ADD     R00,R00         
	00F1CE5A: 0000            ADD     R00,R00         
	00F1CE5C: 0000            ADD     R00,R00         
	00F1CE5E: 0000            ADD     R00,R00         
	00F1CE60: 0000            ADD     R00,R00         
	00F1CE62: 0000            ADD     R00,R00         
	00F1CE64: 0000            ADD     R00,R00         
	00F1CE66: 0000            ADD     R00,R00         
	00F1CE68: 0000            ADD     R00,R00         
	00F1CE6A: 0000            ADD     R00,R00         
	00F1CE6C: 0000            ADD     R00,R00         
	00F1CE6E: 0000            ADD     R00,R00         
	00F1CE70: 0000            ADD     R00,R00         
	00F1CE72: 0000            ADD     R00,R00         
	00F1CE74: 0000            ADD     R00,R00         
	00F1CE76: 0000            ADD     R00,R00         
	00F1CE78: 0000            ADD     R00,R00         
	00F1CE7A: 0000            ADD     R00,R00         
	00F1CE7C: 0000            ADD     R00,R00         
	00F1CE7E: 0000            ADD     R00,R00         
	00F1CE80: 0000            ADD     R00,R00         
	00F1CE82: 0000            ADD     R00,R00         
	00F1CE84: 0000            ADD     R00,R00         
	00F1CE86: 0000            ADD     R00,R00         
	00F1CE88: 0000            ADD     R00,R00         
	00F1CE8A: 0000            ADD     R00,R00         
	00F1CE8C: 0000            ADD     R00,R00         
	00F1CE8E: 0000            ADD     R00,R00         
	00F1CE90: 0000            ADD     R00,R00         
	00F1CE92: 0000            ADD     R00,R00         
	00F1CE94: 0000            ADD     R00,R00         
	00F1CE96: 0000            ADD     R00,R00         
	00F1CE98: 0000            ADD     R00,R00         
	00F1CE9A: 0000            ADD     R00,R00         
	00F1CE9C: 0000            ADD     R00,R00         
	00F1CE9E: 0000            ADD     R00,R00         
	00F1CEA0: 0000            ADD     R00,R00         
	00F1CEA2: 0000            ADD     R00,R00         
	00F1CEA4: 0000            ADD     R00,R00         
	00F1CEA6: 0000            ADD     R00,R00         
	00F1CEA8: 0000            ADD     R00,R00         
	00F1CEAA: 0000            ADD     R00,R00         
	00F1CEAC: 0000            ADD     R00,R00         
	00F1CEAE: 0000            ADD     R00,R00         
	00F1CEB0: 0000            ADD     R00,R00         
	00F1CEB2: 0000            ADD     R00,R00         
	00F1CEB4: 0000            ADD     R00,R00         
	00F1CEB6: 0000            ADD     R00,R00         
	00F1CEB8: 0000            ADD     R00,R00         
	00F1CEBA: 0000            ADD     R00,R00         
	00F1CEBC: 0000            ADD     R00,R00         
	00F1CEBE: 0000            ADD     R00,R00         
	00F1CEC0: 0000            ADD     R00,R00         
	00F1CEC2: 0000            ADD     R00,R00         
	00F1CEC4: 0000            ADD     R00,R00         
	00F1CEC6: 0000            ADD     R00,R00         
	00F1CEC8: 0000            ADD     R00,R00         
	00F1CECA: 0000            ADD     R00,R00         
	00F1CECC: 0000            ADD     R00,R00         
	00F1CECE: 0000            ADD     R00,R00         
	00F1CED0: 0000            ADD     R00,R00         
	00F1CED2: 0000            ADD     R00,R00         
	00F1CED4: 0000            ADD     R00,R00         
	00F1CED6: 0000            ADD     R00,R00         
	00F1CED8: 0000            ADD     R00,R00         
	00F1CEDA: 0000            ADD     R00,R00         
	00F1CEDC: 0000            ADD     R00,R00         
	00F1CEDE: 0000            ADD     R00,R00         
	00F1CEE0: 0000            ADD     R00,R00         
	00F1CEE2: 0000            ADD     R00,R00         
	00F1CEE4: 0000            ADD     R00,R00         
	00F1CEE6: 0000            ADD     R00,R00         
	00F1CEE8: 0000            ADD     R00,R00         
	00F1CEEA: 0000            ADD     R00,R00         
	00F1CEEC: 0000            ADD     R00,R00         
	00F1CEEE: 0000            ADD     R00,R00         
	00F1CEF0: 0000            ADD     R00,R00         
	00F1CEF2: 0000            ADD     R00,R00         
	00F1CEF4: 0000            ADD     R00,R00         
	00F1CEF6: 0000            ADD     R00,R00         
	00F1CEF8: 0000            ADD     R00,R00         
	00F1CEFA: 0000            ADD     R00,R00         
	00F1CEFC: 0000            ADD     R00,R00         
	00F1CEFE: 0000            ADD     R00,R00         
	00F1CF00: 0000            ADD     R00,R00         
	00F1CF02: 0000            ADD     R00,R00         
	00F1CF04: 0000            ADD     R00,R00         
	00F1CF06: 0000            ADD     R00,R00         
	00F1CF08: 0000            ADD     R00,R00         
	00F1CF0A: 0000            ADD     R00,R00         
	00F1CF0C: 0000            ADD     R00,R00         
	00F1CF0E: 0000            ADD     R00,R00         
	00F1CF10: 0000            ADD     R00,R00         
	00F1CF12: 0000            ADD     R00,R00         
	00F1CF14: 0000            ADD     R00,R00         
	00F1CF16: 0000            ADD     R00,R00         
	00F1CF18: 0000            ADD     R00,R00         
	00F1CF1A: 0000            ADD     R00,R00         
	00F1CF1C: 0000            ADD     R00,R00         
	00F1CF1E: 0000            ADD     R00,R00         
	00F1CF20: 0000            ADD     R00,R00         
	00F1CF22: 0000            ADD     R00,R00         
	00F1CF24: 0000            ADD     R00,R00         
	00F1CF26: 0000            ADD     R00,R00         
	00F1CF28: 0000            ADD     R00,R00         
	00F1CF2A: 0000            ADD     R00,R00         
	00F1CF2C: 0000            ADD     R00,R00         
	00F1CF2E: 0000            ADD     R00,R00         
	00F1CF30: 0000            ADD     R00,R00         
	00F1CF32: 0000            ADD     R00,R00         
	00F1CF34: 0000            ADD     R00,R00         
	00F1CF36: 0000            ADD     R00,R00         
	00F1CF38: 0000            ADD     R00,R00         
	00F1CF3A: 0000            ADD     R00,R00         
	00F1CF3C: 0000            ADD     R00,R00         
	00F1CF3E: 0000            ADD     R00,R00         
	00F1CF40: 0000            ADD     R00,R00         
	00F1CF42: 0000            ADD     R00,R00         
	00F1CF44: 0000            ADD     R00,R00         
	00F1CF46: 0000            ADD     R00,R00         
	00F1CF48: 0000            ADD     R00,R00         
	00F1CF4A: 0000            ADD     R00,R00         
	00F1CF4C: 0000            ADD     R00,R00         
	00F1CF4E: 0000            ADD     R00,R00         
	00F1CF50: 0000            ADD     R00,R00         
	00F1CF52: 0000            ADD     R00,R00         
	00F1CF54: 0000            ADD     R00,R00         
	00F1CF56: 0000            ADD     R00,R00         
	00F1CF58: 0000            ADD     R00,R00         
	00F1CF5A: 0000            ADD     R00,R00         
	00F1CF5C: 0000            ADD     R00,R00         
	00F1CF5E: 0000            ADD     R00,R00         
	00F1CF60: 0000            ADD     R00,R00         
	00F1CF62: 0000            ADD     R00,R00         
	00F1CF64: 0000            ADD     R00,R00         
	00F1CF66: 0000            ADD     R00,R00         
	00F1CF68: 0000            ADD     R00,R00         
	00F1CF6A: 0000            ADD     R00,R00         
	00F1CF6C: 0000            ADD     R00,R00         
	00F1CF6E: 0000            ADD     R00,R00         
	00F1CF70: 0000            ADD     R00,R00         
	00F1CF72: 0000            ADD     R00,R00         
	00F1CF74: 0000            ADD     R00,R00         
	00F1CF76: 0000            ADD     R00,R00         
	00F1CF78: 0000            ADD     R00,R00         
	00F1CF7A: 0000            ADD     R00,R00         
	00F1CF7C: 0000            ADD     R00,R00         
	00F1CF7E: 0000            ADD     R00,R00         
	00F1CF80: 0000            ADD     R00,R00         
	00F1CF82: 0000            ADD     R00,R00         
	00F1CF84: 0000            ADD     R00,R00         
	00F1CF86: 0000            ADD     R00,R00         
	00F1CF88: 0000            ADD     R00,R00         
	00F1CF8A: 0000            ADD     R00,R00         
	00F1CF8C: 0000            ADD     R00,R00         
	00F1CF8E: 0000            ADD     R00,R00         
	00F1CF90: 0000            ADD     R00,R00         
	00F1CF92: 0000            ADD     R00,R00         
	00F1CF94: 0000            ADD     R00,R00         
	00F1CF96: 0000            ADD     R00,R00         
	00F1CF98: 0000            ADD     R00,R00         
	00F1CF9A: 0000            ADD     R00,R00         
	00F1CF9C: 0000            ADD     R00,R00         
	00F1CF9E: 0000            ADD     R00,R00         
	00F1CFA0: 0000            ADD     R00,R00         
	00F1CFA2: 0000            ADD     R00,R00         
	00F1CFA4: 0000            ADD     R00,R00         
	00F1CFA6: 0000            ADD     R00,R00         
	00F1CFA8: 0000            ADD     R00,R00         
	00F1CFAA: 0000            ADD     R00,R00         
	00F1CFAC: 0000            ADD     R00,R00         
	00F1CFAE: 0000            ADD     R00,R00         
	00F1CFB0: 0000            ADD     R00,R00         
	00F1CFB2: 0000            ADD     R00,R00         
	00F1CFB4: 0000            ADD     R00,R00         
	00F1CFB6: 0000            ADD     R00,R00         
	00F1CFB8: 0000            ADD     R00,R00         
	00F1CFBA: 0000            ADD     R00,R00         
	00F1CFBC: 0000            ADD     R00,R00         
	00F1CFBE: 0000            ADD     R00,R00         
	00F1CFC0: 0000            ADD     R00,R00         
	00F1CFC2: 0000            ADD     R00,R00         
	00F1CFC4: 0000            ADD     R00,R00         
	00F1CFC6: 0000            ADD     R00,R00         
	00F1CFC8: 0000            ADD     R00,R00         
	00F1CFCA: 0000            ADD     R00,R00         
	00F1CFCC: 0000            ADD     R00,R00         
	00F1CFCE: 0000            ADD     R00,R00         
	00F1CFD0: 0000            ADD     R00,R00         
	00F1CFD2: 0000            ADD     R00,R00         
	00F1CFD4: 0000            ADD     R00,R00         
	00F1CFD6: 0000            ADD     R00,R00         
	00F1CFD8: 0000            ADD     R00,R00         
	00F1CFDA: 0000            ADD     R00,R00         
	00F1CFDC: 0000            ADD     R00,R00         
	00F1CFDE: 0000            ADD     R00,R00         
	00F1CFE0: 0000            ADD     R00,R00         
	00F1CFE2: 0000            ADD     R00,R00         
	00F1CFE4: 0000            ADD     R00,R00         
	00F1CFE6: 0000            ADD     R00,R00         
	00F1CFE8: 0000            ADD     R00,R00         
	00F1CFEA: 0000            ADD     R00,R00         
	00F1CFEC: 0000            ADD     R00,R00         
	00F1CFEE: 0000            ADD     R00,R00         
	00F1CFF0: 0000            ADD     R00,R00         
	00F1CFF2: 0000            ADD     R00,R00         
	00F1CFF4: 0000            ADD     R00,R00         
	00F1CFF6: 0000            ADD     R00,R00         
	00F1CFF8: 0000            ADD     R00,R00         
	00F1CFFA: 0000            ADD     R00,R00         
	00F1CFFC: 0000            ADD     R00,R00         
	00F1CFFE: 0000            ADD     R00,R00         
DSP opcodes use:
	add 680507
	addq 2462539
	addqt 259512
	sub 246563
	subq 632759
	neg 1
	and 2868951
	or 839612
	xor 828845
	not 21922
	btst 3230722
	bset 115116
	bclr 572900
	mult 8
	imult 228744
	imultn 102816
	resmac 102816
	imacn 102816
	div 16
	shlq 866932
	shrq 1898299
	sharq 560433
	rorq 229336
	cmp 1279177
	cmpq 1750149
	move 5931177
	moveq 2279073
	moveta 2546
	movefa 842302
	movei 6071083
	loadb 17
	load 2646291
	load_r14_indexed 3820588
	load_r15_indexed 16
	storew 592
	store 3570988
	store_r14_indexed 302181
	store_r15_indexed 24244
	move_pc 1
	jump 3629825
	jr 5456303
	nop 4971453
	load_r15_ri 228744


---------------------------------------------------------------------
TOM I/O Registers
---------------------------------------------------------------------
F00000 (MEMCON1): $1861
F00002 (MEMCON2): $35CC
F00004      (HC): $0000
F00006      (VC): $0000
F00020     (OLP): $8000001F
F00026     (OBF): $0000
F00028   (VMODE): $06C7
F0002A   (BORD1): $0000
F0002C   (BORD2): $0000
F0002E      (HP): $034C
F00030     (HBB): $06B1
F00032     (HBE): $007D
F00034      (HS): $0000
F00036     (HVS): $0000
F00038    (HDB1): $00B1
F0003A    (HDB2): $00B1
F0003C     (HDE): $0665
F0003E      (VP): $020B
F00040     (VBB): $01F4
F00042     (VBE): $0018
F00044      (VS): $0205
F00046     (VDB): $0029
F00048     (VDE): $FFFF
F0004A     (VEB): $0000
F0004C     (VEE): $0000
F0004E      (VI): $01FD
F00050    (PIT0): $0000
F00052    (PIT1): $0000
F00054     (HEQ): $0000
F00058      (BG): $0000
F000E0    (INT1): $0101
F000E2    (INT2): $0000
---------------------------------------------------------------------



OP: OLP = $001F8000
OP: Phrase dump
    ----------
001F8000: 000003F0 04008003 (BRANCH) -> $08X YPOS > 0
001F8008: 00000000 00000004 (STOP) -> $08X
001F8020: 000003F0 08005003 (BRANCH) -> $08X YPOS < 512
001F8028: 00000000 00000004 (STOP) -> $08X
001F8040: 000003F0 0C007FF3 (BRANCH) -> $08X YPOS < 2046
001F8048: 000003F0 0C003FFB (BRANCH) -> $08X YPOS == 2047
001F8050: 29150000 990E0000 (BITMAP) -> $08X
          BC070000 2D5B0000
    [128 x 56 @ (0, 0) (iw:2, dw:854) (1 bpp), p:00291500 fp:03, fl:RELEASE, idx:00, pt:06]
000004C8: DD750000 6B0D0000 (BITMAP) -> $08X
          DC5D0000 E9400000
    [896 x 52 @ (0, 0) (iw:14, dw:592) (1 bpp), p:00DD7500 fp:2E, fl:RELEASE, idx:00, pt:00]
00000358: 3C380000 9F050000 (BITMAP) -> $08X
          8D6F0000 30740000
    [192 x 20 @ (0, 0) (iw:3, dw:29) (1 bpp), p:003C3800 fp:37, fl:RELEASE, idx:00, pt:00]
000004F8: 25340000 AB000000 (BITMAP) -> $08X
          9A100000 FD3E0000
    [960 x 0 @ (0, 0) (iw:15, dw:847) (1 bpp), p:00253400 fp:08, fl:, idx:00, pt:04]
00000558: 1B600000 24340000 (BITMAP) -> $08X
          99790000 3E7D0000
    [192 x 208 @ (0, 0) (iw:3, dw:927) (1 bpp), p:001B6000 fp:3C, fl:RELEASE, idx:00, pt:02]
00000120: 6D6D0000 E10F0000 (BITMAP) -> $08X
          EE100000 B7160000
    [704 x 60 @ (0, 0) (iw:11, dw:453) (1 bpp), p:006D6D00 fp:08, fl:, idx:00, pt:04]
00000708: 37710000 98510000 (BITMAP) -> $08X
          A7270000 95750000
    [576 x 324 @ (0, 0) (iw:9, dw:349) (1 bpp), p:00377100 fp:13, fl:RELEASE, idx:00, pt:02]
000004C0: 70450000 754F0000 (BITMAP) -> $08X
          DD750000 6B0D0000
    [384 x 316 @ (0, 0) (iw:6, dw:707) (1 bpp), p:00704500 fp:3A, fl:RELEASE, idx:00, pt:02]
000003A8: C65A0000 21410000 (BITMAP) -> $08X
          EA360000 B9060000
    [704 x 260 @ (0, 0) (iw:11, dw:577) (1 bpp), p:00C65A00 fp:1B, fl:, idx:00, pt:04]
00000108: B0120000 29500000 (BITMAP) -> $08X
          076B0000 3F360000
    [192 x 320 @ (0, 0) (iw:3, dw:973) (1 bpp), p:00B01200 fp:35, fl:RELEASE, idx:00, pt:04]
00000148: F60D0000 5E400000 (BITMAP) -> $08X
          4F650000 B1130000
    [704 x 256 @ (0, 0) (iw:11, dw:68) (1 bpp), p:00F60D00 fp:32, fl:RELEASE, idx:00, pt:06]
000002F0: 20570000 BF210000 (BITMAP) -> $08X
          AC310000 B3670000
    [704 x 132 @ (0, 0) (iw:11, dw:217) (1 bpp), p:00205700 fp:18, fl:RELEASE, idx:00, pt:06]
000005F8: CC600000 660E0000 (BITMAP) -> $08X
          55300000 05790000
    [0 x 56 @ (0, 0) (iw:0, dw:350) (1 bpp), p:00CC6000 fp:18, fl:, idx:00, pt:02]
00000330: 8D620000 99380000 (BITMAP) -> $08X
          B71A0000 C6180000
    [768 x 224 @ (0, 0) (iw:12, dw:390) (1 bpp), p:008D6200 fp:0D, fl:, idx:00, pt:00]
001F8060: 014493F0 103C0100 (BITMAP) -> $08X
          00000005 8160C000
    [352 x 240 @ (0, 32) (iw:88, dw:88) (16 bpp), p:00014490 fp:00, fl:, idx:00, pt:01]
001F8080: 065953F0 2C2181C0 (BITMAP) -> $08X
          00008001 304CC006
    [76 x 134 @ (6, 56) (iw:19, dw:19) (16 bpp), p:00065950 fp:00, fl:TRANS , idx:00, pt:01]
001F8160: 081B83F0 542187A0 (BITMAP) -> $08X
          00008001 6058C004
    [88 x 134 @ (4, 244) (iw:22, dw:22) (16 bpp), p:00081B80 fp:00, fl:TRANS , idx:00, pt:01]
001F82A0: 1AE8E3F0 583C0100 (BITMAP) -> $08X
          00009E01 705CA013
    [368 x 240 @ (19, 32) (iw:23, dw:23) (4 bpp), p:001AE8E0 fp:00, fl:TRANS , idx:78, pt:01]
001F82C0: 00000000 00000D04 (STOP) -> $08X

BLIT: Done.
TOM: Resolution 326 x 240 16 BPP RGB


---------------------------------------------------------------------
JERRY I/O Registers
---------------------------------------------------------------------
F10000    (JPIT1): $0030
F10002    (JPIT2): $0015
F10004    (JPIT3): $11C0
F10008    (JPIT4): $11C0
F10010     (CLK1): $0000
F10012     (CLK2): $0000
F10014     (CLK3): $0000
F10020 (JINTCTRL): $0000
F10030  (ASIDATA): $0000
F10032  (ASICTRL): $0000
F10034   (ASICLK): $0000
F1A150     (SCLK): $0000
F1A154    (SMODE): $0000
---------------------------------------------------------------------


JERRY: M68K Interrupt control ($F10020) = 0000
DAC: Done.
EEPROM: Done.
